ARM GAS  /var/folders/dt/hjs72d_11kddbzhkd4h37c6c0000gn/T//ccCZYdSq.s 			page 1


   1              		.syntax unified
   2              		.cpu cortex-m4
   3              		.eabi_attribute 27, 1
   4              		.eabi_attribute 28, 1
   5              		.fpu fpv4-sp-d16
   6              		.eabi_attribute 20, 1
   7              		.eabi_attribute 21, 1
   8              		.eabi_attribute 23, 3
   9              		.eabi_attribute 24, 1
  10              		.eabi_attribute 25, 1
  11              		.eabi_attribute 26, 1
  12              		.eabi_attribute 30, 4
  13              		.eabi_attribute 34, 1
  14              		.eabi_attribute 18, 4
  15              		.thumb
  16              		.syntax unified
  17              		.file	"lfo.cpp"
  18              		.text
  19              	.Ltext0:
  20              		.cfi_sections	.debug_frame
  21              		.align	1
  22              		.global	_hook_init
  23              		.thumb
  24              		.thumb_func
  25              		.type	_hook_init, %function
  26              	_hook_init:
  27              	.LFB251:
  28              		.file 1 "../src/lfo.cpp"
  29              		.loc 1 39 0
  30              		.cfi_startproc
  31              		@ args = 0, pretend = 0, frame = 0
  32              		@ frame_needed = 0, uses_anonymous_args = 0
  33              		@ link register save eliminated.
  34              	.LVL0:
  35              	.LBB85:
  36              	.LBB86:
  37              		.file 2 "../../../inc/dsp/simplelfo.hpp"
  38              		.loc 2 91 0
  39 0000 034B     		ldr	r3, .L2
  40              	.LBE86:
  41              	.LBE85:
  42              	.LBB87:
  43              	.LBB88:
  44              		.loc 2 103 0
  45 0002 044A     		ldr	r2, .L2+4
  46 0004 4FF00041 		mov	r1, #-2147483648
  47              	.LVL1:
  48 0008 83E80600 		stmia	r3, {r1, r2}
  49 000c 7047     		bx	lr
  50              	.L3:
  51 000e 00BF     		.align	2
  52              	.L2:
  53 0010 00000000 		.word	.LANCHOR0
  54 0014 925F2C01 		.word	19685266
  55              	.LBE88:
  56              	.LBE87:
  57              		.cfi_endproc
ARM GAS  /var/folders/dt/hjs72d_11kddbzhkd4h37c6c0000gn/T//ccCZYdSq.s 			page 2


  58              	.LFE251:
  59              		.size	_hook_init, .-_hook_init
  60              		.align	1
  61              		.global	_hook_process
  62              		.thumb
  63              		.thumb_func
  64              		.type	_hook_process, %function
  65              	_hook_process:
  66              	.LFB252:
  67              		.loc 1 47 0
  68              		.cfi_startproc
  69              		@ args = 4, pretend = 0, frame = 0
  70              		@ frame_needed = 0, uses_anonymous_args = 0
  71              	.LVL2:
  72 0018 2DE9F043 		push	{r4, r5, r6, r7, r8, r9, lr}
  73              		.cfi_def_cfa_offset 28
  74              		.cfi_offset 4, -28
  75              		.cfi_offset 5, -24
  76              		.cfi_offset 6, -20
  77              		.cfi_offset 7, -16
  78              		.cfi_offset 8, -12
  79              		.cfi_offset 9, -8
  80              		.cfi_offset 14, -4
  81              		.loc 1 52 0
  82 001c 734C     		ldr	r4, .L27
  83              		.loc 1 49 0
  84 001e 079D     		ldr	r5, [sp, #28]
  85              		.loc 1 53 0
  86 0020 94ED036A 		vldr.32	s12, [r4, #12]
  87 0024 2768     		ldr	r7, [r4]
  88              	.LBB89:
  89              	.LBB90:
  90              	.LBB91:
  91              	.LBB92:
  92              		.loc 2 82 0
  93 0026 6668     		ldr	r6, [r4, #4]
  94              	.LBE92:
  95              	.LBE91:
  96              	.LBE90:
  97              	.LBE89:
  98              		.loc 1 52 0
  99 0028 94ED023A 		vldr.32	s6, [r4, #8]
 100              	.LBB154:
 101              	.LBB151:
 102              		.loc 1 63 0
 103 002c 94F810E0 		ldrb	lr, [r4, #16]	@ zero_extendqisi2
 104              	.LBB93:
 105              	.LBB94:
 106              		.file 3 "../../../inc/utils/float_math.h"
 107              		.loc 3 826 0
 108 0030 DFED6F2A 		vldr.32	s5, .L27+4
 109              	.LBE94:
 110              	.LBE93:
 111              	.LBB96:
 112              	.LBB97:
 113              		.loc 2 279 0
 114 0034 9FED6F5A 		vldr.32	s10, .L27+8
ARM GAS  /var/folders/dt/hjs72d_11kddbzhkd4h37c6c0000gn/T//ccCZYdSq.s 			page 3


 115              	.LBE97:
 116              	.LBE96:
 117              	.LBB99:
 118              	.LBB100:
 119              		.loc 2 234 0
 120 0038 9FED6F7A 		vldr.32	s14, .L27+12
 121              	.LBE100:
 122              	.LBE99:
 123              	.LBB102:
 124              	.LBB103:
 125              		.loc 2 190 0
 126 003c 9FED6F4A 		vldr.32	s8, .L27+16
 127              	.LBE103:
 128              	.LBE102:
 129              	.LBB112:
 130              	.LBB113:
 131              		.loc 2 258 0
 132 0040 9FED6F2A 		vldr.32	s4, .L27+20
 133              	.LBE113:
 134              	.LBE112:
 135              		.loc 1 114 0
 136 0044 DFED6F3A 		vldr.32	s7, .L27+24
 137              	.LBE151:
 138              	.LBE154:
 139              		.loc 1 49 0
 140 0048 ED00     		lsls	r5, r5, #3
 141 004a 01EB050C 		add	ip, r1, r5
 142              	.LVL3:
 143 004e F019     		adds	r0, r6, r7
 144              	.LVL4:
 145 0050 0833     		adds	r3, r3, #8
 146              	.LVL5:
 147              		.loc 1 53 0
 148 0052 F0EE465A 		vmov.f32	s11, s12
 149              	.LBB155:
 150              	.LBB152:
 151              	.LBB118:
 152              	.LBB114:
 153              		.loc 2 258 0
 154 0056 F7EE006A 		vmov.f32	s13, #1.0e+0
 155 005a FFEE004A 		vmov.f32	s9, #-1.0e+0
 156              	.LBE114:
 157              	.LBE118:
 158              	.LBB119:
 159              	.LBB110:
 160              	.LBB104:
 161              	.LBB105:
 162              		.file 4 "../../../../ext/CMSIS/CMSIS/Include/cmsis_gcc.h"
 163              		.loc 4 1336 0
 164 005e 4FF08048 		mov	r8, #1073741824
 165              	.LVL6:
 166              	.L20:
 167              	.LBE105:
 168              	.LBE104:
 169              	.LBE110:
 170              	.LBE119:
 171              	.LBE152:
ARM GAS  /var/folders/dt/hjs72d_11kddbzhkd4h37c6c0000gn/T//ccCZYdSq.s 			page 4


 172              		.loc 1 55 0
 173 0062 6145     		cmp	r1, ip
 174 0064 00F0B980 		beq	.L5
 175              	.LVL7:
 176              	.LBB153:
 177              	.LBB120:
 178              	.LBB95:
 179              		.loc 3 826 0
 180 0068 73EE651A 		vsub.f32	s3, s6, s11
 181 006c E1EEA25A 		vfma.f32	s11, s3, s5
 182              	.LVL8:
 183              	.LBE95:
 184              	.LBE120:
 185              		.loc 1 63 0
 186 0070 BEF10B0F 		cmp	lr, #11
 187 0074 00F2A280 		bhi	.L6
 188 0078 DFE80EF0 		tbb	[pc, lr]
 189              	.L8:
 190 007c 06       		.byte	(.L7-.L8)/2
 191 007d 09       		.byte	(.L9-.L8)/2
 192 007e 0E       		.byte	(.L10-.L8)/2
 193 007f 15       		.byte	(.L11-.L8)/2
 194 0080 1C       		.byte	(.L12-.L8)/2
 195 0081 33       		.byte	(.L13-.L8)/2
 196 0082 40       		.byte	(.L14-.L8)/2
 197 0083 4A       		.byte	(.L15-.L8)/2
 198 0084 51       		.byte	(.L16-.L8)/2
 199 0085 6D       		.byte	(.L17-.L8)/2
 200 0086 84       		.byte	(.L18-.L8)/2
 201 0087 93       		.byte	(.L19-.L8)/2
 202              		.p2align 1
 203              	.L7:
 204              	.LVL9:
 205              	.LBB121:
 206              	.LBB122:
 207              		.loc 2 125 0
 208 0088 07EE900A 		vmov	s15, r0	@ int
 209              	.LVL10:
 210 008c 50E0     		b	.L24
 211              	.LVL11:
 212              	.L9:
 213              	.LBE122:
 214              	.LBE121:
 215              	.LBB123:
 216              	.LBB124:
 217              		.loc 2 170 0
 218 008e 4FEAE079 		asr	r9, r0, #31
 219              	.LVL12:
 220              	.LBB125:
 221              	.LBB126:
 222              		.loc 4 1336 0
 223 0092 80EA0902 		eor	r2, r0, r9
 224              	.LVL13:
 225 0096 69E0     		b	.L25
 226              	.LVL14:
 227              	.L10:
 228              	.LBE126:
ARM GAS  /var/folders/dt/hjs72d_11kddbzhkd4h37c6c0000gn/T//ccCZYdSq.s 			page 5


 229              	.LBE125:
 230              	.LBE124:
 231              	.LBE123:
 232              	.LBB127:
 233              	.LBB128:
 234              		.loc 2 213 0
 235 0098 07EE900A 		vmov	s15, r0	@ int
 236              	.LVL15:
 237 009c F8EEE77A 		vcvt.f32.s32	s15, s15
 238 00a0 67EE877A 		vmul.f32	s15, s15, s14
 239              	.LVL16:
 240              	.LBE128:
 241              	.LBE127:
 242              		.loc 1 74 0
 243 00a4 8AE0     		b	.L6
 244              	.LVL17:
 245              	.L11:
 246              	.LBB129:
 247              	.LBB115:
 248              		.loc 2 258 0
 249 00a6 0028     		cmp	r0, #0
 250 00a8 ACBF     		ite	ge
 251 00aa F0EE667A 		vmovge.f32	s15, s13
 252 00ae F0EE647A 		vmovlt.f32	s15, s9
 253              	.LVL18:
 254 00b2 83E0     		b	.L6
 255              	.LVL19:
 256              	.L12:
 257              	.LBE115:
 258              	.LBE129:
 259              	.LBB130:
 260              	.LBB131:
 261              		.loc 2 135 0
 262 00b4 07EE900A 		vmov	s15, r0	@ int
 263              	.LVL20:
 264 00b8 F8EEE71A 		vcvt.f32.s32	s3, s15
 265              		.loc 2 136 0
 266 00bc B0EE001A 		vmov.f32	s2, #2.0e+0
 267              		.loc 2 135 0
 268 00c0 61EE877A 		vmul.f32	s15, s3, s14
 269              	.LVL21:
 270              	.LBB132:
 271              	.LBB133:
 272              		.loc 3 287 0
 273 00c4 17EE902A 		vmov	r2, s15	@ int
 274 00c8 22F00042 		bic	r2, r2, #-2147483648
 275 00cc 01EE902A 		vmov	s3, r2	@ int
 276              	.LBE133:
 277              	.LBE132:
 278              		.loc 2 136 0
 279 00d0 71EEE61A 		vsub.f32	s3, s3, s13
 280 00d4 61EEA71A 		vmul.f32	s3, s3, s15
 281 00d8 F6EE007A 		vmov.f32	s15, #5.0e-1
 282              	.LVL22:
 283 00dc E1EE817A 		vfma.f32	s15, s3, s2
 284              	.LVL23:
 285              	.LBE131:
ARM GAS  /var/folders/dt/hjs72d_11kddbzhkd4h37c6c0000gn/T//ccCZYdSq.s 			page 6


 286              	.LBE130:
 287              		.loc 1 82 0
 288 00e0 6CE0     		b	.L6
 289              	.LVL24:
 290              	.L13:
 291              	.LBB134:
 292              	.LBB135:
 293              	.LBB136:
 294              	.LBB137:
 295              		.loc 3 287 0
 296 00e2 07EE900A 		vmov	s15, r0	@ int
 297              	.LVL25:
 298 00e6 F8EEE77A 		vcvt.f32.s32	s15, s15
 299 00ea 67EE877A 		vmul.f32	s15, s15, s14
 300 00ee 17EE902A 		vmov	r2, s15	@ int
 301 00f2 22F00042 		bic	r2, r2, #-2147483648
 302 00f6 07EE902A 		vmov	s15, r2	@ int
 303              	.LVL26:
 304              	.LBE137:
 305              	.LBE136:
 306              	.LBE135:
 307              	.LBE134:
 308              		.loc 1 86 0
 309 00fa 5FE0     		b	.L6
 310              	.LVL27:
 311              	.L14:
 312              	.LBB138:
 313              	.LBB139:
 314              	.LBB140:
 315              	.LBB141:
 316              		.loc 4 1328 0
 317 00fc 4210     		asrs	r2, r0, #1
 318              	.LVL28:
 319              		.syntax unified
 320              	@ 1328 "../../../../ext/CMSIS/CMSIS/Include/cmsis_gcc.h" 1
 321 00fe 88FA82F2 		qadd r2, r2, r8
 322              	@ 0 "" 2
 323              	.LVL29:
 324              		.thumb
 325              		.syntax unified
 326 0102 07EE902A 		vmov	s15, r2	@ int
 327              	.LVL30:
 328              	.LBE141:
 329              	.LBE140:
 330              		.loc 2 222 0
 331 0106 F8EEE77A 		vcvt.f32.s32	s15, s15
 332 010a 67EE877A 		vmul.f32	s15, s15, s14
 333              	.LVL31:
 334              	.LBE139:
 335              	.LBE138:
 336              		.loc 1 90 0
 337 010e 55E0     		b	.L6
 338              	.LVL32:
 339              	.L15:
 340              	.LBB142:
 341              	.LBB116:
 342              		.loc 2 258 0
ARM GAS  /var/folders/dt/hjs72d_11kddbzhkd4h37c6c0000gn/T//ccCZYdSq.s 			page 7


 343 0110 0028     		cmp	r0, #0
 344 0112 ACBF     		ite	ge
 345 0114 F0EE667A 		vmovge.f32	s15, s13
 346 0118 F0EE427A 		vmovlt.f32	s15, s4
 347              	.LVL33:
 348 011c 4EE0     		b	.L6
 349              	.LVL34:
 350              	.L16:
 351              	.LBE116:
 352              	.LBE142:
 353              	.LBB143:
 354              	.LBB144:
 355              		.loc 2 147 0
 356 011e 66EE047A 		vmul.f32	s15, s12, s8
 357              	.LVL35:
 358 0122 FDEEE77A 		vcvt.s32.f32	s15, s15
 359 0126 17EE902A 		vmov	r2, s15	@ int
 360 012a 0244     		add	r2, r2, r0
 361 012c 07EE902A 		vmov	s15, r2	@ int
 362              	.LVL36:
 363              	.L24:
 364 0130 F8EEE77A 		vcvt.f32.s32	s15, s15
 365 0134 67EE871A 		vmul.f32	s3, s15, s14
 366              	.LVL37:
 367              	.LBB145:
 368              	.LBB146:
 369              		.loc 3 287 0
 370 0138 11EE902A 		vmov	r2, s3	@ int
 371 013c 22F00042 		bic	r2, r2, #-2147483648
 372 0140 07EE902A 		vmov	s15, r2	@ int
 373              	.LBE146:
 374              	.LBE145:
 375              		.loc 2 148 0
 376 0144 77EEE67A 		vsub.f32	s15, s15, s13
 377 0148 67EEA17A 		vmul.f32	s15, s15, s3
 378 014c F1EE001A 		vmov.f32	s3, #4.0e+0
 379              	.LVL38:
 380 0150 67EEA17A 		vmul.f32	s15, s15, s3
 381              	.LBE144:
 382              	.LBE143:
 383              		.loc 1 98 0
 384 0154 32E0     		b	.L6
 385              	.LVL39:
 386              	.L17:
 387              	.LBB147:
 388              	.LBB111:
 389              		.loc 2 190 0
 390 0156 66EE047A 		vmul.f32	s15, s12, s8
 391              	.LVL40:
 392 015a FDEEE77A 		vcvt.s32.f32	s15, s15
 393 015e 17EE902A 		vmov	r2, s15	@ int
 394 0162 0244     		add	r2, r2, r0
 395              	.LVL41:
 396              		.loc 2 191 0
 397 0164 4FEAE279 		asr	r9, r2, #31
 398              	.LVL42:
 399              	.LBB107:
ARM GAS  /var/folders/dt/hjs72d_11kddbzhkd4h37c6c0000gn/T//ccCZYdSq.s 			page 8


 400              	.LBB108:
 401              		.loc 4 1336 0
 402 0168 82EA0902 		eor	r2, r2, r9
 403              	.LVL43:
 404              	.L25:
 405              		.syntax unified
 406              	@ 1336 "../../../../ext/CMSIS/CMSIS/Include/cmsis_gcc.h" 1
 407 016c 89FAA2F2 		qsub r2, r2, r9
 408              	@ 0 "" 2
 409              	.LVL44:
 410              		.thumb
 411              		.syntax unified
 412              	.LBE108:
 413              	.LBE107:
 414              	.LBB109:
 415              	.LBB106:
 416              		.syntax unified
 417              	@ 1336 "../../../../ext/CMSIS/CMSIS/Include/cmsis_gcc.h" 1
 418 0170 88FAA2F2 		qsub r2, r2, r8
 419              	@ 0 "" 2
 420              	.LVL45:
 421              		.thumb
 422              		.syntax unified
 423              	.LBE106:
 424              	.LBE109:
 425              		.loc 2 191 0
 426 0174 5200     		lsls	r2, r2, #1
 427 0176 07EE902A 		vmov	s15, r2	@ int
 428 017a F8EEE77A 		vcvt.f32.s32	s15, s15
 429 017e 67EE877A 		vmul.f32	s15, s15, s14
 430              	.LBE111:
 431              	.LBE147:
 432              		.loc 1 102 0
 433 0182 1BE0     		b	.L6
 434              	.LVL46:
 435              	.L18:
 436              	.LBB148:
 437              	.LBB101:
 438              		.loc 2 234 0
 439 0184 66EE057A 		vmul.f32	s15, s12, s10
 440              	.LVL47:
 441 0188 FDEEE77A 		vcvt.s32.f32	s15, s15
 442 018c 17EE902A 		vmov	r2, s15	@ int
 443 0190 00EB4202 		add	r2, r0, r2, lsl #1
 444 0194 07EE902A 		vmov	s15, r2	@ int
 445 0198 F8EEE77A 		vcvt.f32.s32	s15, s15
 446 019c 67EE877A 		vmul.f32	s15, s15, s14
 447              	.LVL48:
 448              	.LBE101:
 449              	.LBE148:
 450              		.loc 1 106 0
 451 01a0 0CE0     		b	.L6
 452              	.LVL49:
 453              	.L19:
 454              	.LBB149:
 455              	.LBB98:
 456              		.loc 2 279 0
ARM GAS  /var/folders/dt/hjs72d_11kddbzhkd4h37c6c0000gn/T//ccCZYdSq.s 			page 9


 457 01a2 66EE057A 		vmul.f32	s15, s12, s10
 458              	.LVL50:
 459 01a6 FDEEE77A 		vcvt.s32.f32	s15, s15
 460              	.LBE98:
 461              	.LBE149:
 462              	.LBB150:
 463              	.LBB117:
 464              		.loc 2 258 0
 465 01aa 17EE902A 		vmov	r2, s15	@ int
 466 01ae 10EB4202 		adds	r2, r0, r2, lsl #1
 467 01b2 4CBF     		ite	mi
 468 01b4 F0EE647A 		vmovmi.f32	s15, s9
 469 01b8 F0EE667A 		vmovpl.f32	s15, s13
 470              	.LVL51:
 471              	.L6:
 472              	.LBE117:
 473              	.LBE150:
 474              		.loc 1 114 0
 475 01bc 67EEA37A 		vmul.f32	s15, s15, s7
 476              	.LVL52:
 477 01c0 3044     		add	r0, r0, r6
 478              		.loc 1 116 0
 479 01c2 17EE902A 		vmov	r2, s15
 480 01c6 41F8082B 		str	r2, [r1], #8	@ float
 481              	.LVL53:
 482 01ca 0833     		adds	r3, r3, #8
 483              		.loc 1 117 0
 484 01cc 41ED017A 		vstr.32	s15, [r1, #-4]
 485              	.LVL54:
 486              		.loc 1 118 0
 487 01d0 43ED047A 		vstr.32	s15, [r3, #-16]
 488              	.LVL55:
 489              		.loc 1 119 0
 490 01d4 43ED037A 		vstr.32	s15, [r3, #-12]
 491              	.LBE153:
 492              		.loc 1 55 0
 493 01d8 43E7     		b	.L20
 494              	.LVL56:
 495              	.L5:
 496 01da ED08     		lsrs	r5, r5, #3
 497 01dc 06FB0576 		mla	r6, r6, r5, r7
 498 01e0 2660     		str	r6, [r4]
 499              	.LBE155:
 500              		.loc 1 122 0
 501 01e2 C4ED035A 		vstr.32	s11, [r4, #12]
 502 01e6 BDE8F083 		pop	{r4, r5, r6, r7, r8, r9, pc}
 503              	.LVL57:
 504              	.L28:
 505 01ea 00BF     		.align	2
 506              	.L27:
 507 01ec 00000000 		.word	.LANCHOR0
 508 01f0 6F12033B 		.word	990057071
 509 01f4 0000004F 		.word	1325400064
 510 01f8 00000030 		.word	805306368
 511 01fc 0000804F 		.word	1333788672
 512 0200 00000000 		.word	0
 513 0204 CDCCCC3D 		.word	1036831949
ARM GAS  /var/folders/dt/hjs72d_11kddbzhkd4h37c6c0000gn/T//ccCZYdSq.s 			page 10


 514              		.cfi_endproc
 515              	.LFE252:
 516              		.size	_hook_process, .-_hook_process
 517              		.align	1
 518              		.global	_hook_param
 519              		.thumb
 520              		.thumb_func
 521              		.type	_hook_param, %function
 522              	_hook_param:
 523              	.LFB253:
 524              		.loc 1 127 0
 525              		.cfi_startproc
 526              		@ args = 0, pretend = 0, frame = 0
 527              		@ frame_needed = 0, uses_anonymous_args = 0
 528              		@ link register save eliminated.
 529              	.LVL58:
 530              		.loc 1 128 0
 531 0208 07EE901A 		vmov	s15, r1	@ int
 532 020c FAEEE07A 		vcvt.f32.s32	s15, s15, #31
 533              	.LVL59:
 534              		.loc 1 129 0
 535 0210 10B1     		cbz	r0, .L31
 536 0212 0128     		cmp	r0, #1
 537 0214 19D0     		beq	.L32
 538 0216 7047     		bx	lr
 539              	.L31:
 540              		.loc 1 131 0
 541 0218 B2EE067A 		vmov.f32	s14, #1.1e+1
 542 021c 67EE877A 		vmul.f32	s15, s15, s14
 543              	.LVL60:
 544 0220 0C4A     		ldr	r2, .L33
 545              	.LBB156:
 546              	.LBB157:
 547              	.LBB158:
 548              	.LBB159:
 549              		.loc 3 276 0
 550 0222 17EE903A 		vmov	r3, s15	@ int
 551 0226 03F00043 		and	r3, r3, #-2147483648
 552 022a 43F07C53 		orr	r3, r3, #1056964608
 553              	.LBE159:
 554              	.LBE158:
 555              	.LBE157:
 556              	.LBE156:
 557              		.loc 1 131 0
 558 022e 07EE103A 		vmov	s14, r3
 559 0232 77EE877A 		vadd.f32	s15, s15, s14
 560 0236 FDEEE77A 		vcvt.s32.f32	s15, s15
 561 023a F8EEE77A 		vcvt.f32.s32	s15, s15
 562 023e FCEEE77A 		vcvt.u32.f32	s15, s15
 563 0242 17EE903A 		vmov	r3, s15	@ int
 564 0246 1374     		strb	r3, [r2, #16]
 565              		.loc 1 132 0
 566 0248 7047     		bx	lr
 567              	.LVL61:
 568              	.L32:
 569              		.loc 1 134 0
 570 024a 024B     		ldr	r3, .L33
ARM GAS  /var/folders/dt/hjs72d_11kddbzhkd4h37c6c0000gn/T//ccCZYdSq.s 			page 11


 571 024c C3ED027A 		vstr.32	s15, [r3, #8]
 572 0250 7047     		bx	lr
 573              	.L34:
 574 0252 00BF     		.align	2
 575              	.L33:
 576 0254 00000000 		.word	.LANCHOR0
 577              		.cfi_endproc
 578              	.LFE253:
 579              		.size	_hook_param, .-_hook_param
 580              		.section	.text.startup,"ax",%progbits
 581              		.align	1
 582              		.thumb
 583              		.thumb_func
 584              		.type	_GLOBAL__sub_I__hook_init, %function
 585              	_GLOBAL__sub_I__hook_init:
 586              	.LFB255:
 587              		.loc 1 139 0
 588              		.cfi_startproc
 589              		@ args = 0, pretend = 0, frame = 0
 590              		@ frame_needed = 0, uses_anonymous_args = 0
 591              		@ link register save eliminated.
 592              	.LVL62:
 593              	.LBB160:
 594              	.LBB161:
 595              	.LBB162:
 596              		.loc 2 69 0
 597 0000 034B     		ldr	r3, .L36
 598 0002 4FF00041 		mov	r1, #-2147483648
 599 0006 0022     		movs	r2, #0
 600 0008 83E80600 		stmia	r3, {r1, r2}
 601              	.LVL63:
 602 000c 7047     		bx	lr
 603              	.L37:
 604 000e 00BF     		.align	2
 605              	.L36:
 606 0010 00000000 		.word	.LANCHOR0
 607              	.LBE162:
 608              	.LBE161:
 609              	.LBE160:
 610              		.cfi_endproc
 611              	.LFE255:
 612              		.size	_GLOBAL__sub_I__hook_init, .-_GLOBAL__sub_I__hook_init
 613              		.section	.init_array,"aw",%init_array
 614              		.align	2
 615 0000 00000000 		.word	_GLOBAL__sub_I__hook_init(target1)
 616              		.bss
 617              		.align	2
 618              		.set	.LANCHOR0,. + 0
 619              		.type	_ZL5s_lfo, %object
 620              		.size	_ZL5s_lfo, 8
 621              	_ZL5s_lfo:
 622 0000 00000000 		.space	8
 622      00000000 
 623              		.type	_ZL7s_param, %object
 624              		.size	_ZL7s_param, 4
 625              	_ZL7s_param:
 626 0008 00000000 		.space	4
ARM GAS  /var/folders/dt/hjs72d_11kddbzhkd4h37c6c0000gn/T//ccCZYdSq.s 			page 12


 627              		.type	_ZL9s_param_z, %object
 628              		.size	_ZL9s_param_z, 4
 629              	_ZL9s_param_z:
 630 000c 00000000 		.space	4
 631              		.type	_ZL10s_lfo_wave, %object
 632              		.size	_ZL10s_lfo_wave, 1
 633              	_ZL10s_lfo_wave:
 634 0010 00       		.space	1
 635              		.text
 636              	.Letext0:
 637              		.file 5 "/Users/markweiss/Documents/projects/logue-sdk/tools/gcc/gcc-arm-none-eabi-5_4-2016q3/arm-
 638              		.file 6 "/Users/markweiss/Documents/projects/logue-sdk/tools/gcc/gcc-arm-none-eabi-5_4-2016q3/arm-
 639              		.file 7 "../../../../ext/CMSIS/CMSIS/Include/arm_math.h"
 640              		.file 8 "../../../inc/usermodfx.h"
 641              		.file 9 "../../../inc/userprg.h"
 642              		.file 10 "../../../inc/fx_api.h"