ARM GAS  /var/folders/dt/hjs72d_11kddbzhkd4h37c6c0000gn/T//ccCZYdSq.s 			page 1


   1              		.syntax unified
   2              		.cpu cortex-m4
   3              		.eabi_attribute 27, 1
   4              		.eabi_attribute 28, 1
   5              		.fpu fpv4-sp-d16
   6              		.eabi_attribute 20, 1
   7              		.eabi_attribute 21, 1
   8              		.eabi_attribute 23, 3
   9              		.eabi_attribute 24, 1
  10              		.eabi_attribute 25, 1
  11              		.eabi_attribute 26, 1
  12              		.eabi_attribute 30, 4
  13              		.eabi_attribute 34, 1
  14              		.eabi_attribute 18, 4
  15              		.thumb
  16              		.syntax unified
  17              		.file	"lfo.cpp"
  18              		.text
  19              	.Ltext0:
  20              		.cfi_sections	.debug_frame
  21              		.align	1
  22              		.global	_hook_init
  23              		.thumb
  24              		.thumb_func
  25              		.type	_hook_init, %function
  26              	_hook_init:
  27              	.LFB251:
  28              		.file 1 "../src/lfo.cpp"
  29              		.loc 1 39 0
  30              		.cfi_startproc
  31              		@ args = 0, pretend = 0, frame = 0
  32              		@ frame_needed = 0, uses_anonymous_args = 0
  33              		@ link register save eliminated.
  34              	.LVL0:
  35              	.LBB85:
  36              	.LBB86:
  37              		.file 2 "../../../inc/dsp/simplelfo.hpp"
  38              		.loc 2 91 0
  39 0000 034B     		ldr	r3, .L2
  40              	.LBE86:
  41              	.LBE85:
  42              	.LBB87:
  43              	.LBB88:
  44              		.loc 2 103 0
  45 0002 044A     		ldr	r2, .L2+4
  46 0004 4FF00041 		mov	r1, #-2147483648
  47              	.LVL1:
  48 0008 83E80600 		stmia	r3, {r1, r2}
  49 000c 7047     		bx	lr
  50              	.L3:
  51 000e 00BF     		.align	2
  52              	.L2:
  53 0010 00000000 		.word	.LANCHOR0
  54 0014 925F2C01 		.word	19685266
  55              	.LBE88:
  56              	.LBE87:
  57              		.cfi_endproc
ARM GAS  /var/folders/dt/hjs72d_11kddbzhkd4h37c6c0000gn/T//ccCZYdSq.s 			page 2


  58              	.LFE251:
  59              		.size	_hook_init, .-_hook_init
  60              		.align	1
  61              		.global	_hook_process
  62              		.thumb
  63              		.thumb_func
  64              		.type	_hook_process, %function
  65              	_hook_process:
  66              	.LFB252:
  67              		.loc 1 47 0
  68              		.cfi_startproc
  69              		@ args = 4, pretend = 0, frame = 0
  70              		@ frame_needed = 0, uses_anonymous_args = 0
  71              	.LVL2:
  72 0018 2DE9F043 		push	{r4, r5, r6, r7, r8, r9, lr}
  73              		.cfi_def_cfa_offset 28
  74              		.cfi_offset 4, -28
  75              		.cfi_offset 5, -24
  76              		.cfi_offset 6, -20
  77              		.cfi_offset 7, -16
  78              		.cfi_offset 8, -12
  79              		.cfi_offset 9, -8
  80              		.cfi_offset 14, -4
  81              		.loc 1 52 0
  82 001c 734C     		ldr	r4, .L27
  83              		.loc 1 49 0
  84 001e 079D     		ldr	r5, [sp, #28]
  85              		.loc 1 53 0
  86 0020 94ED036A 		vldr.32	s12, [r4, #12]
  87 0024 2768     		ldr	r7, [r4]
  88              	.LBB89:
  89              	.LBB90:
  90              	.LBB91:
  91              	.LBB92:
  92              		.loc 2 82 0
  93 0026 6668     		ldr	r6, [r4, #4]
  94              	.LBE92:
  95              	.LBE91:
  96              	.LBE90:
  97              	.LBE89:
  98              		.loc 1 52 0
  99 0028 94ED023A 		vldr.32	s6, [r4, #8]
 100              	.LBB154:
 101              	.LBB151:
 102              		.loc 1 63 0
 103 002c 94F810E0 		ldrb	lr, [r4, #16]	@ zero_extendqisi2
 104              	.LBB93:
 105              	.LBB94:
 106              		.file 3 "../../../inc/utils/float_math.h"
 107              		.loc 3 826 0
 108 0030 DFED6F2A 		vldr.32	s5, .L27+4
 109              	.LBE94:
 110              	.LBE93:
 111              	.LBB96:
 112              	.LBB97:
 113              		.loc 2 279 0
 114 0034 9FED6F5A 		vldr.32	s10, .L27+8
ARM GAS  /var/folders/dt/hjs72d_11kddbzhkd4h37c6c0000gn/T//ccCZYdSq.s 			page 3


 115              	.LBE97:
 116              	.LBE96:
 117              	.LBB99:
 118              	.LBB100:
 119              		.loc 2 234 0
 120 0038 9FED6F7A 		vldr.32	s14, .L27+12
 121              	.LBE100:
 122              	.LBE99:
 123              	.LBB102:
 124              	.LBB103:
 125              		.loc 2 190 0
 126 003c 9FED6F4A 		vldr.32	s8, .L27+16
 127              	.LBE103:
 128              	.LBE102:
 129              	.LBB112:
 130              	.LBB113:
 131              		.loc 2 258 0
 132 0040 9FED6F2A 		vldr.32	s4, .L27+20
 133              	.LBE113:
 134              	.LBE112:
 135              		.loc 1 114 0
 136 0044 DFED6F3A 		vldr.32	s7, .L27+24
 137              	.LBE151:
 138              	.LBE154:
 139              		.loc 1 49 0
 140 0048 ED00     		lsls	r5, r5, #3
 141 004a 01EB050C 		add	ip, r1, r5
 142              	.LVL3:
 143 004e F019     		adds	r0, r6, r7
 144              	.LVL4:
 145 0050 0833     		adds	r3, r3, #8
 146              	.LVL5:
 147              		.loc 1 53 0
 148 0052 F0EE465A 		vmov.f32	s11, s12
 149              	.LBB155:
 150              	.LBB152:
 151              	.LBB118:
 152              	.LBB114:
 153              		.loc 2 258 0
 154 0056 F7EE006A 		vmov.f32	s13, #1.0e+0
 155 005a FFEE004A 		vmov.f32	s9, #-1.0e+0
 156              	.LBE114:
 157              	.LBE118:
 158              	.LBB119:
 159              	.LBB110:
 160              	.LBB104:
 161              	.LBB105:
 162              		.file 4 "../../../../ext/CMSIS/CMSIS/Include/cmsis_gcc.h"
 163              		.loc 4 1336 0
 164 005e 4FF08048 		mov	r8, #1073741824
 165              	.LVL6:
 166              	.L20:
 167              	.LBE105:
 168              	.LBE104:
 169              	.LBE110:
 170              	.LBE119:
 171              	.LBE152:
ARM GAS  /var/folders/dt/hjs72d_11kddbzhkd4h37c6c0000gn/T//ccCZYdSq.s 			page 4


 172              		.loc 1 55 0
 173 0062 6145     		cmp	r1, ip
 174 0064 00F0B980 		beq	.L5
 175              	.LVL7:
 176              	.LBB153:
 177              	.LBB120:
 178              	.LBB95:
 179              		.loc 3 826 0
 180 0068 73EE651A 		vsub.f32	s3, s6, s11
 181 006c E1EEA25A 		vfma.f32	s11, s3, s5
 182              	.LVL8:
 183              	.LBE95:
 184              	.LBE120:
 185              		.loc 1 63 0
 186 0070 BEF10B0F 		cmp	lr, #11
 187 0074 00F2A280 		bhi	.L6
 188 0078 DFE80EF0 		tbb	[pc, lr]
 189              	.L8:
 190 007c 06       		.byte	(.L7-.L8)/2
 191 007d 09       		.byte	(.L9-.L8)/2
 192 007e 0E       		.byte	(.L10-.L8)/2
 193 007f 15       		.byte	(.L11-.L8)/2
 194 0080 1C       		.byte	(.L12-.L8)/2
 195 0081 33       		.byte	(.L13-.L8)/2
 196 0082 40       		.byte	(.L14-.L8)/2
 197 0083 4A       		.byte	(.L15-.L8)/2
 198 0084 51       		.byte	(.L16-.L8)/2
 199 0085 6D       		.byte	(.L17-.L8)/2
 200 0086 84       		.byte	(.L18-.L8)/2
 201 0087 93       		.byte	(.L19-.L8)/2
 202              		.p2align 1
 203              	.L7:
 204              	.LVL9:
 205              	.LBB121:
 206              	.LBB122:
 207              		.loc 2 125 0
 208 0088 07EE900A 		vmov	s15, r0	@ int
 209              	.LVL10:
 210 008c 50E0     		b	.L24
 211              	.LVL11:
 212              	.L9:
 213              	.LBE122:
 214              	.LBE121:
 215              	.LBB123:
 216              	.LBB124:
 217              		.loc 2 170 0
 218 008e 4FEAE079 		asr	r9, r0, #31
 219              	.LVL12:
 220              	.LBB125:
 221              	.LBB126:
 222              		.loc 4 1336 0
 223 0092 80EA0902 		eor	r2, r0, r9
 224              	.LVL13:
 225 0096 69E0     		b	.L25
 226              	.LVL14:
 227              	.L10:
 228              	.LBE126:
ARM GAS  /var/folders/dt/hjs72d_11kddbzhkd4h37c6c0000gn/T//ccCZYdSq.s 			page 5


 229              	.LBE125:
 230              	.LBE124:
 231              	.LBE123:
 232              	.LBB127:
 233              	.LBB128:
 234              		.loc 2 213 0
 235 0098 07EE900A 		vmov	s15, r0	@ int
 236              	.LVL15:
 237 009c F8EEE77A 		vcvt.f32.s32	s15, s15
 238 00a0 67EE877A 		vmul.f32	s15, s15, s14
 239              	.LVL16:
 240              	.LBE128:
 241              	.LBE127:
 242              		.loc 1 74 0
 243 00a4 8AE0     		b	.L6
 244              	.LVL17:
 245              	.L11:
 246              	.LBB129:
 247              	.LBB115:
 248              		.loc 2 258 0
 249 00a6 0028     		cmp	r0, #0
 250 00a8 ACBF     		ite	ge
 251 00aa F0EE667A 		vmovge.f32	s15, s13
 252 00ae F0EE647A 		vmovlt.f32	s15, s9
 253              	.LVL18:
 254 00b2 83E0     		b	.L6
 255              	.LVL19:
 256              	.L12:
 257              	.LBE115:
 258              	.LBE129:
 259              	.LBB130:
 260              	.LBB131:
 261              		.loc 2 135 0
 262 00b4 07EE900A 		vmov	s15, r0	@ int
 263              	.LVL20:
 264 00b8 F8EEE71A 		vcvt.f32.s32	s3, s15
 265              		.loc 2 136 0
 266 00bc B0EE001A 		vmov.f32	s2, #2.0e+0
 267              		.loc 2 135 0
 268 00c0 61EE877A 		vmul.f32	s15, s3, s14
 269              	.LVL21:
 270              	.LBB132:
 271              	.LBB133:
 272              		.loc 3 287 0
 273 00c4 17EE902A 		vmov	r2, s15	@ int
 274 00c8 22F00042 		bic	r2, r2, #-2147483648
 275 00cc 01EE902A 		vmov	s3, r2	@ int
 276              	.LBE133:
 277              	.LBE132:
 278              		.loc 2 136 0
 279 00d0 71EEE61A 		vsub.f32	s3, s3, s13
 280 00d4 61EEA71A 		vmul.f32	s3, s3, s15
 281 00d8 F6EE007A 		vmov.f32	s15, #5.0e-1
 282              	.LVL22:
 283 00dc E1EE817A 		vfma.f32	s15, s3, s2
 284              	.LVL23:
 285              	.LBE131:
ARM GAS  /var/folders/dt/hjs72d_11kddbzhkd4h37c6c0000gn/T//ccCZYdSq.s 			page 6


 286              	.LBE130:
 287              		.loc 1 82 0
 288 00e0 6CE0     		b	.L6
 289              	.LVL24:
 290              	.L13:
 291              	.LBB134:
 292              	.LBB135:
 293              	.LBB136:
 294              	.LBB137:
 295              		.loc 3 287 0
 296 00e2 07EE900A 		vmov	s15, r0	@ int
 297              	.LVL25:
 298 00e6 F8EEE77A 		vcvt.f32.s32	s15, s15
 299 00ea 67EE877A 		vmul.f32	s15, s15, s14
 300 00ee 17EE902A 		vmov	r2, s15	@ int
 301 00f2 22F00042 		bic	r2, r2, #-2147483648
 302 00f6 07EE902A 		vmov	s15, r2	@ int
 303              	.LVL26:
 304              	.LBE137:
 305              	.LBE136:
 306              	.LBE135:
 307              	.LBE134:
 308              		.loc 1 86 0
 309 00fa 5FE0     		b	.L6
 310              	.LVL27:
 311              	.L14:
 312              	.LBB138:
 313              	.LBB139:
 314              	.LBB140:
 315              	.LBB141:
 316              		.loc 4 1328 0
 317 00fc 4210     		asrs	r2, r0, #1
 318              	.LVL28:
 319              		.syntax unified
 320              	@ 1328 "../../../../ext/CMSIS/CMSIS/Include/cmsis_gcc.h" 1
 321 00fe 88FA82F2 		qadd r2, r2, r8
 322              	@ 0 "" 2
 323              	.LVL29:
 324              		.thumb
 325              		.syntax unified
 326 0102 07EE902A 		vmov	s15, r2	@ int
 327              	.LVL30:
 328              	.LBE141:
 329              	.LBE140:
 330              		.loc 2 222 0
 331 0106 F8EEE77A 		vcvt.f32.s32	s15, s15
 332 010a 67EE877A 		vmul.f32	s15, s15, s14
 333              	.LVL31:
 334              	.LBE139:
 335              	.LBE138:
 336              		.loc 1 90 0
 337 010e 55E0     		b	.L6
 338              	.LVL32:
 339              	.L15:
 340              	.LBB142:
 341              	.LBB116:
 342              		.loc 2 258 0
ARM GAS  /var/folders/dt/hjs72d_11kddbzhkd4h37c6c0000gn/T//ccCZYdSq.s 			page 7


 343 0110 0028     		cmp	r0, #0
 344 0112 ACBF     		ite	ge
 345 0114 F0EE667A 		vmovge.f32	s15, s13
 346 0118 F0EE427A 		vmovlt.f32	s15, s4
 347              	.LVL33:
 348 011c 4EE0     		b	.L6
 349              	.LVL34:
 350              	.L16:
 351              	.LBE116:
 352              	.LBE142:
 353              	.LBB143:
 354              	.LBB144:
 355              		.loc 2 147 0
 356 011e 66EE047A 		vmul.f32	s15, s12, s8
 357              	.LVL35:
 358 0122 FDEEE77A 		vcvt.s32.f32	s15, s15
 359 0126 17EE902A 		vmov	r2, s15	@ int
 360 012a 0244     		add	r2, r2, r0
 361 012c 07EE902A 		vmov	s15, r2	@ int
 362              	.LVL36:
 363              	.L24:
 364 0130 F8EEE77A 		vcvt.f32.s32	s15, s15
 365 0134 67EE871A 		vmul.f32	s3, s15, s14
 366              	.LVL37:
 367              	.LBB145:
 368              	.LBB146:
 369              		.loc 3 287 0
 370 0138 11EE902A 		vmov	r2, s3	@ int
 371 013c 22F00042 		bic	r2, r2, #-2147483648
 372 0140 07EE902A 		vmov	s15, r2	@ int
 373              	.LBE146:
 374              	.LBE145:
 375              		.loc 2 148 0
 376 0144 77EEE67A 		vsub.f32	s15, s15, s13
 377 0148 67EEA17A 		vmul.f32	s15, s15, s3
 378 014c F1EE001A 		vmov.f32	s3, #4.0e+0
 379              	.LVL38:
 380 0150 67EEA17A 		vmul.f32	s15, s15, s3
 381              	.LBE144:
 382              	.LBE143:
 383              		.loc 1 98 0
 384 0154 32E0     		b	.L6
 385              	.LVL39:
 386              	.L17:
 387              	.LBB147:
 388              	.LBB111:
 389              		.loc 2 190 0
 390 0156 66EE047A 		vmul.f32	s15, s12, s8
 391              	.LVL40:
 392 015a FDEEE77A 		vcvt.s32.f32	s15, s15
 393 015e 17EE902A 		vmov	r2, s15	@ int
 394 0162 0244     		add	r2, r2, r0
 395              	.LVL41:
 396              		.loc 2 191 0
 397 0164 4FEAE279 		asr	r9, r2, #31
 398              	.LVL42:
 399              	.LBB107:
ARM GAS  /var/folders/dt/hjs72d_11kddbzhkd4h37c6c0000gn/T//ccCZYdSq.s 			page 8


 400              	.LBB108:
 401              		.loc 4 1336 0
 402 0168 82EA0902 		eor	r2, r2, r9
 403              	.LVL43:
 404              	.L25:
 405              		.syntax unified
 406              	@ 1336 "../../../../ext/CMSIS/CMSIS/Include/cmsis_gcc.h" 1
 407 016c 89FAA2F2 		qsub r2, r2, r9
 408              	@ 0 "" 2
 409              	.LVL44:
 410              		.thumb
 411              		.syntax unified
 412              	.LBE108:
 413              	.LBE107:
 414              	.LBB109:
 415              	.LBB106:
 416              		.syntax unified
 417              	@ 1336 "../../../../ext/CMSIS/CMSIS/Include/cmsis_gcc.h" 1
 418 0170 88FAA2F2 		qsub r2, r2, r8
 419              	@ 0 "" 2
 420              	.LVL45:
 421              		.thumb
 422              		.syntax unified
 423              	.LBE106:
 424              	.LBE109:
 425              		.loc 2 191 0
 426 0174 5200     		lsls	r2, r2, #1
 427 0176 07EE902A 		vmov	s15, r2	@ int
 428 017a F8EEE77A 		vcvt.f32.s32	s15, s15
 429 017e 67EE877A 		vmul.f32	s15, s15, s14
 430              	.LBE111:
 431              	.LBE147:
 432              		.loc 1 102 0
 433 0182 1BE0     		b	.L6
 434              	.LVL46:
 435              	.L18:
 436              	.LBB148:
 437              	.LBB101:
 438              		.loc 2 234 0
 439 0184 66EE057A 		vmul.f32	s15, s12, s10
 440              	.LVL47:
 441 0188 FDEEE77A 		vcvt.s32.f32	s15, s15
 442 018c 17EE902A 		vmov	r2, s15	@ int
 443 0190 00EB4202 		add	r2, r0, r2, lsl #1
 444 0194 07EE902A 		vmov	s15, r2	@ int
 445 0198 F8EEE77A 		vcvt.f32.s32	s15, s15
 446 019c 67EE877A 		vmul.f32	s15, s15, s14
 447              	.LVL48:
 448              	.LBE101:
 449              	.LBE148:
 450              		.loc 1 106 0
 451 01a0 0CE0     		b	.L6
 452              	.LVL49:
 453              	.L19:
 454              	.LBB149:
 455              	.LBB98:
 456              		.loc 2 279 0
ARM GAS  /var/folders/dt/hjs72d_11kddbzhkd4h37c6c0000gn/T//ccCZYdSq.s 			page 9


 457 01a2 66EE057A 		vmul.f32	s15, s12, s10
 458              	.LVL50:
 459 01a6 FDEEE77A 		vcvt.s32.f32	s15, s15
 460              	.LBE98:
 461              	.LBE149:
 462              	.LBB150:
 463              	.LBB117:
 464              		.loc 2 258 0
 465 01aa 17EE902A 		vmov	r2, s15	@ int
 466 01ae 10EB4202 		adds	r2, r0, r2, lsl #1
 467 01b2 4CBF     		ite	mi
 468 01b4 F0EE647A 		vmovmi.f32	s15, s9
 469 01b8 F0EE667A 		vmovpl.f32	s15, s13
 470              	.LVL51:
 471              	.L6:
 472              	.LBE117:
 473              	.LBE150:
 474              		.loc 1 114 0
 475 01bc 67EEA37A 		vmul.f32	s15, s15, s7
 476              	.LVL52:
 477 01c0 3044     		add	r0, r0, r6
 478              		.loc 1 116 0
 479 01c2 17EE902A 		vmov	r2, s15
 480 01c6 41F8082B 		str	r2, [r1], #8	@ float
 481              	.LVL53:
 482 01ca 0833     		adds	r3, r3, #8
 483              		.loc 1 117 0
 484 01cc 41ED017A 		vstr.32	s15, [r1, #-4]
 485              	.LVL54:
 486              		.loc 1 118 0
 487 01d0 43ED047A 		vstr.32	s15, [r3, #-16]
 488              	.LVL55:
 489              		.loc 1 119 0
 490 01d4 43ED037A 		vstr.32	s15, [r3, #-12]
 491              	.LBE153:
 492              		.loc 1 55 0
 493 01d8 43E7     		b	.L20
 494              	.LVL56:
 495              	.L5:
 496 01da ED08     		lsrs	r5, r5, #3
 497 01dc 06FB0576 		mla	r6, r6, r5, r7
 498 01e0 2660     		str	r6, [r4]
 499              	.LBE155:
 500              		.loc 1 122 0
 501 01e2 C4ED035A 		vstr.32	s11, [r4, #12]
 502 01e6 BDE8F083 		pop	{r4, r5, r6, r7, r8, r9, pc}
 503              	.LVL57:
 504              	.L28:
 505 01ea 00BF     		.align	2
 506              	.L27:
 507 01ec 00000000 		.word	.LANCHOR0
 508 01f0 6F12033B 		.word	990057071
 509 01f4 0000004F 		.word	1325400064
 510 01f8 00000030 		.word	805306368
 511 01fc 0000804F 		.word	1333788672
 512 0200 00000000 		.word	0
 513 0204 CDCCCC3D 		.word	1036831949
ARM GAS  /var/folders/dt/hjs72d_11kddbzhkd4h37c6c0000gn/T//ccCZYdSq.s 			page 10


 514              		.cfi_endproc
 515              	.LFE252:
 516              		.size	_hook_process, .-_hook_process
 517              		.align	1
 518              		.global	_hook_param
 519              		.thumb
 520              		.thumb_func
 521              		.type	_hook_param, %function
 522              	_hook_param:
 523              	.LFB253:
 524              		.loc 1 127 0
 525              		.cfi_startproc
 526              		@ args = 0, pretend = 0, frame = 0
 527              		@ frame_needed = 0, uses_anonymous_args = 0
 528              		@ link register save eliminated.
 529              	.LVL58:
 530              		.loc 1 128 0
 531 0208 07EE901A 		vmov	s15, r1	@ int
 532 020c FAEEE07A 		vcvt.f32.s32	s15, s15, #31
 533              	.LVL59:
 534              		.loc 1 129 0
 535 0210 10B1     		cbz	r0, .L31
 536 0212 0128     		cmp	r0, #1
 537 0214 19D0     		beq	.L32
 538 0216 7047     		bx	lr
 539              	.L31:
 540              		.loc 1 131 0
 541 0218 B2EE067A 		vmov.f32	s14, #1.1e+1
 542 021c 67EE877A 		vmul.f32	s15, s15, s14
 543              	.LVL60:
 544 0220 0C4A     		ldr	r2, .L33
 545              	.LBB156:
 546              	.LBB157:
 547              	.LBB158:
 548              	.LBB159:
 549              		.loc 3 276 0
 550 0222 17EE903A 		vmov	r3, s15	@ int
 551 0226 03F00043 		and	r3, r3, #-2147483648
 552 022a 43F07C53 		orr	r3, r3, #1056964608
 553              	.LBE159:
 554              	.LBE158:
 555              	.LBE157:
 556              	.LBE156:
 557              		.loc 1 131 0
 558 022e 07EE103A 		vmov	s14, r3
 559 0232 77EE877A 		vadd.f32	s15, s15, s14
 560 0236 FDEEE77A 		vcvt.s32.f32	s15, s15
 561 023a F8EEE77A 		vcvt.f32.s32	s15, s15
 562 023e FCEEE77A 		vcvt.u32.f32	s15, s15
 563 0242 17EE903A 		vmov	r3, s15	@ int
 564 0246 1374     		strb	r3, [r2, #16]
 565              		.loc 1 132 0
 566 0248 7047     		bx	lr
 567              	.LVL61:
 568              	.L32:
 569              		.loc 1 134 0
 570 024a 024B     		ldr	r3, .L33
ARM GAS  /var/folders/dt/hjs72d_11kddbzhkd4h37c6c0000gn/T//ccCZYdSq.s 			page 11


 571 024c C3ED027A 		vstr.32	s15, [r3, #8]
 572 0250 7047     		bx	lr
 573              	.L34:
 574 0252 00BF     		.align	2
 575              	.L33:
 576 0254 00000000 		.word	.LANCHOR0
 577              		.cfi_endproc
 578              	.LFE253:
 579              		.size	_hook_param, .-_hook_param
 580              		.section	.text.startup,"ax",%progbits
 581              		.align	1
 582              		.thumb
 583              		.thumb_func
 584              		.type	_GLOBAL__sub_I__hook_init, %function
 585              	_GLOBAL__sub_I__hook_init:
 586              	.LFB255:
 587              		.loc 1 139 0
 588              		.cfi_startproc
 589              		@ args = 0, pretend = 0, frame = 0
 590              		@ frame_needed = 0, uses_anonymous_args = 0
 591              		@ link register save eliminated.
 592              	.LVL62:
 593              	.LBB160:
 594              	.LBB161:
 595              	.LBB162:
 596              		.loc 2 69 0
 597 0000 034B     		ldr	r3, .L36
 598 0002 4FF00041 		mov	r1, #-2147483648
 599 0006 0022     		movs	r2, #0
 600 0008 83E80600 		stmia	r3, {r1, r2}
 601              	.LVL63:
 602 000c 7047     		bx	lr
 603              	.L37:
 604 000e 00BF     		.align	2
 605              	.L36:
 606 0010 00000000 		.word	.LANCHOR0
 607              	.LBE162:
 608              	.LBE161:
 609              	.LBE160:
 610              		.cfi_endproc
 611              	.LFE255:
 612              		.size	_GLOBAL__sub_I__hook_init, .-_GLOBAL__sub_I__hook_init
 613              		.section	.init_array,"aw",%init_array
 614              		.align	2
 615 0000 00000000 		.word	_GLOBAL__sub_I__hook_init(target1)
 616              		.bss
 617              		.align	2
 618              		.set	.LANCHOR0,. + 0
 619              		.type	_ZL5s_lfo, %object
 620              		.size	_ZL5s_lfo, 8
 621              	_ZL5s_lfo:
 622 0000 00000000 		.space	8
 622      00000000 
 623              		.type	_ZL7s_param, %object
 624              		.size	_ZL7s_param, 4
 625              	_ZL7s_param:
 626 0008 00000000 		.space	4
ARM GAS  /var/folders/dt/hjs72d_11kddbzhkd4h37c6c0000gn/T//ccCZYdSq.s 			page 12


 627              		.type	_ZL9s_param_z, %object
 628              		.size	_ZL9s_param_z, 4
 629              	_ZL9s_param_z:
 630 000c 00000000 		.space	4
 631              		.type	_ZL10s_lfo_wave, %object
 632              		.size	_ZL10s_lfo_wave, 1
 633              	_ZL10s_lfo_wave:
 634 0010 00       		.space	1
 635              		.text
 636              	.Letext0:
 637              		.file 5 "/Users/markweiss/Documents/projects/logue-sdk/tools/gcc/gcc-arm-none-eabi-5_4-2016q3/arm-
 638              		.file 6 "/Users/markweiss/Documents/projects/logue-sdk/tools/gcc/gcc-arm-none-eabi-5_4-2016q3/arm-
 639              		.file 7 "../../../../ext/CMSIS/CMSIS/Include/arm_math.h"
 640              		.file 8 "../../../inc/usermodfx.h"
 641              		.file 9 "../../../inc/userprg.h"
 642              		.file 10 "../../../inc/fx_api.h"
 643              		.section	.debug_info,"",%progbits
 644              	.Ldebug_info0:
 645 0000 2D0E0000 		.4byte	0xe2d
 646 0004 0400     		.2byte	0x4
 647 0006 00000000 		.4byte	.Ldebug_abbrev0
 648 000a 04       		.byte	0x4
 649 000b 01       		.uleb128 0x1
 650 000c 7D000000 		.4byte	.LASF129
 651 0010 04       		.byte	0x4
 652 0011 FF070000 		.4byte	.LASF130
 653 0015 0E080000 		.4byte	.LASF131
 654 0019 D8000000 		.4byte	.Ldebug_ranges0+0xd8
 655 001d 00000000 		.4byte	0
 656 0021 00000000 		.4byte	.Ldebug_line0
 657 0025 02       		.uleb128 0x2
 658 0026 04       		.byte	0x4
 659 0027 04       		.byte	0x4
 660 0028 4D020000 		.4byte	.LASF0
 661 002c 03       		.uleb128 0x3
 662 002d 04       		.byte	0x4
 663 002e 05       		.byte	0x5
 664 002f 696E7400 		.ascii	"int\000"
 665 0033 02       		.uleb128 0x2
 666 0034 01       		.byte	0x1
 667 0035 06       		.byte	0x6
 668 0036 6D080000 		.4byte	.LASF1
 669 003a 04       		.uleb128 0x4
 670 003b 07070000 		.4byte	.LASF5
 671 003f 05       		.byte	0x5
 672 0040 1D       		.byte	0x1d
 673 0041 45000000 		.4byte	0x45
 674 0045 02       		.uleb128 0x2
 675 0046 01       		.byte	0x1
 676 0047 08       		.byte	0x8
 677 0048 7F070000 		.4byte	.LASF2
 678 004c 02       		.uleb128 0x2
 679 004d 02       		.byte	0x2
 680 004e 05       		.byte	0x5
 681 004f 39060000 		.4byte	.LASF3
 682 0053 02       		.uleb128 0x2
 683 0054 02       		.byte	0x2
ARM GAS  /var/folders/dt/hjs72d_11kddbzhkd4h37c6c0000gn/T//ccCZYdSq.s 			page 13


 684 0055 07       		.byte	0x7
 685 0056 79080000 		.4byte	.LASF4
 686 005a 04       		.uleb128 0x4
 687 005b AF010000 		.4byte	.LASF6
 688 005f 05       		.byte	0x5
 689 0060 3F       		.byte	0x3f
 690 0061 65000000 		.4byte	0x65
 691 0065 02       		.uleb128 0x2
 692 0066 04       		.byte	0x4
 693 0067 05       		.byte	0x5
 694 0068 62060000 		.4byte	.LASF7
 695 006c 04       		.uleb128 0x4
 696 006d 8D070000 		.4byte	.LASF8
 697 0071 05       		.byte	0x5
 698 0072 41       		.byte	0x41
 699 0073 77000000 		.4byte	0x77
 700 0077 02       		.uleb128 0x2
 701 0078 04       		.byte	0x4
 702 0079 07       		.byte	0x7
 703 007a 32070000 		.4byte	.LASF9
 704 007e 02       		.uleb128 0x2
 705 007f 08       		.byte	0x8
 706 0080 05       		.byte	0x5
 707 0081 96040000 		.4byte	.LASF10
 708 0085 02       		.uleb128 0x2
 709 0086 08       		.byte	0x8
 710 0087 07       		.byte	0x7
 711 0088 A5020000 		.4byte	.LASF11
 712 008c 02       		.uleb128 0x2
 713 008d 04       		.byte	0x4
 714 008e 07       		.byte	0x7
 715 008f 95010000 		.4byte	.LASF12
 716 0093 04       		.uleb128 0x4
 717 0094 47040000 		.4byte	.LASF13
 718 0098 06       		.byte	0x6
 719 0099 18       		.byte	0x18
 720 009a 3A000000 		.4byte	0x3a
 721 009e 04       		.uleb128 0x4
 722 009f 58070000 		.4byte	.LASF14
 723 00a3 06       		.byte	0x6
 724 00a4 2C       		.byte	0x2c
 725 00a5 5A000000 		.4byte	0x5a
 726 00a9 04       		.uleb128 0x4
 727 00aa 04020000 		.4byte	.LASF15
 728 00ae 06       		.byte	0x6
 729 00af 30       		.byte	0x30
 730 00b0 6C000000 		.4byte	0x6c
 731 00b4 02       		.uleb128 0x2
 732 00b5 08       		.byte	0x8
 733 00b6 04       		.byte	0x4
 734 00b7 B3050000 		.4byte	.LASF16
 735 00bb 05       		.uleb128 0x5
 736 00bc BE070000 		.4byte	.LASF132
 737 00c0 02       		.uleb128 0x2
 738 00c1 04       		.byte	0x4
 739 00c2 07       		.byte	0x7
 740 00c3 29070000 		.4byte	.LASF17
ARM GAS  /var/folders/dt/hjs72d_11kddbzhkd4h37c6c0000gn/T//ccCZYdSq.s 			page 14


 741 00c7 02       		.uleb128 0x2
 742 00c8 01       		.byte	0x1
 743 00c9 08       		.byte	0x8
 744 00ca B7030000 		.4byte	.LASF18
 745 00ce 02       		.uleb128 0x2
 746 00cf 08       		.byte	0x8
 747 00d0 04       		.byte	0x4
 748 00d1 B1080000 		.4byte	.LASF19
 749 00d5 06       		.uleb128 0x6
 750 00d6 04       		.byte	0x4
 751 00d7 03       		.byte	0x3
 752 00d8 A1       		.byte	0xa1
 753 00d9 61050000 		.4byte	.LASF133
 754 00dd F4000000 		.4byte	0xf4
 755 00e1 07       		.uleb128 0x7
 756 00e2 6600     		.ascii	"f\000"
 757 00e4 03       		.byte	0x3
 758 00e5 A2       		.byte	0xa2
 759 00e6 25000000 		.4byte	0x25
 760 00ea 07       		.uleb128 0x7
 761 00eb 6900     		.ascii	"i\000"
 762 00ed 03       		.byte	0x3
 763 00ee A3       		.byte	0xa3
 764 00ef A9000000 		.4byte	0xa9
 765 00f3 00       		.byte	0
 766 00f4 04       		.uleb128 0x4
 767 00f5 00000000 		.4byte	.LASF20
 768 00f9 03       		.byte	0x3
 769 00fa A4       		.byte	0xa4
 770 00fb D5000000 		.4byte	0xd5
 771 00ff 08       		.uleb128 0x8
 772 0100 1E070000 		.4byte	.LASF21
 773 0104 07       		.byte	0x7
 774 0105 8D01     		.2byte	0x18d
 775 0107 9E000000 		.4byte	0x9e
 776 010b 09       		.uleb128 0x9
 777 010c FF000000 		.4byte	0xff
 778 0110 0A       		.uleb128 0xa
 779 0111 01       		.byte	0x1
 780 0112 45000000 		.4byte	0x45
 781 0116 09       		.byte	0x9
 782 0117 35       		.byte	0x35
 783 0118 41010000 		.4byte	0x141
 784 011c 0B       		.uleb128 0xb
 785 011d A9070000 		.4byte	.LASF22
 786 0121 00       		.byte	0
 787 0122 0B       		.uleb128 0xb
 788 0123 9C060000 		.4byte	.LASF23
 789 0127 01       		.byte	0x1
 790 0128 0B       		.uleb128 0xb
 791 0129 77020000 		.4byte	.LASF24
 792 012d 02       		.byte	0x2
 793 012e 0B       		.uleb128 0xb
 794 012f 0D030000 		.4byte	.LASF25
 795 0133 03       		.byte	0x3
 796 0134 0B       		.uleb128 0xb
 797 0135 97050000 		.4byte	.LASF26
ARM GAS  /var/folders/dt/hjs72d_11kddbzhkd4h37c6c0000gn/T//ccCZYdSq.s 			page 15


 798 0139 04       		.byte	0x4
 799 013a 0B       		.uleb128 0xb
 800 013b 04050000 		.4byte	.LASF27
 801 013f 05       		.byte	0x5
 802 0140 00       		.byte	0
 803 0141 0C       		.uleb128 0xc
 804 0142 01       		.byte	0x1
 805 0143 45000000 		.4byte	0x45
 806 0147 08       		.byte	0x8
 807 0148 44       		.byte	0x44
 808 0149 3E000000 		.4byte	.LASF134
 809 014d 64010000 		.4byte	0x164
 810 0151 0B       		.uleb128 0xb
 811 0152 A4040000 		.4byte	.LASF28
 812 0156 00       		.byte	0
 813 0157 0B       		.uleb128 0xb
 814 0158 BC040000 		.4byte	.LASF29
 815 015c 01       		.byte	0x1
 816 015d 0B       		.uleb128 0xb
 817 015e 3B030000 		.4byte	.LASF30
 818 0162 02       		.byte	0x2
 819 0163 00       		.byte	0
 820 0164 04       		.uleb128 0x4
 821 0165 1B040000 		.4byte	.LASF31
 822 0169 08       		.byte	0x8
 823 016a 4A       		.byte	0x4a
 824 016b 41010000 		.4byte	0x141
 825 016f 0D       		.uleb128 0xd
 826 0170 04       		.byte	0x4
 827 0171 75010000 		.4byte	0x175
 828 0175 09       		.uleb128 0x9
 829 0176 25000000 		.4byte	0x25
 830 017a 0D       		.uleb128 0xd
 831 017b 04       		.byte	0x4
 832 017c 25000000 		.4byte	0x25
 833 0180 0E       		.uleb128 0xe
 834 0181 64737000 		.ascii	"dsp\000"
 835 0185 02       		.byte	0x2
 836 0186 32       		.byte	0x32
 837 0187 36040000 		.4byte	0x436
 838 018b 0F       		.uleb128 0xf
 839 018c 23090000 		.4byte	.LASF41
 840 0190 08       		.byte	0x8
 841 0191 02       		.byte	0x2
 842 0192 37       		.byte	0x37
 843 0193 10       		.uleb128 0x10
 844 0194 6B030000 		.4byte	.LASF32
 845 0198 02       		.byte	0x2
 846 0199 2A01     		.2byte	0x12a
 847 019b FF000000 		.4byte	0xff
 848 019f 00       		.byte	0
 849 01a0 11       		.uleb128 0x11
 850 01a1 773000   		.ascii	"w0\000"
 851 01a4 02       		.byte	0x2
 852 01a5 2B01     		.2byte	0x12b
 853 01a7 FF000000 		.4byte	0xff
 854 01ab 04       		.byte	0x4
ARM GAS  /var/folders/dt/hjs72d_11kddbzhkd4h37c6c0000gn/T//ccCZYdSq.s 			page 16


 855 01ac 12       		.uleb128 0x12
 856 01ad 23090000 		.4byte	.LASF41
 857 01b1 02       		.byte	0x2
 858 01b2 44       		.byte	0x44
 859 01b3 55030000 		.4byte	.LASF43
 860 01b7 36040000 		.4byte	0x436
 861 01bb C3010000 		.4byte	0x1c3
 862 01bf C9010000 		.4byte	0x1c9
 863 01c3 13       		.uleb128 0x13
 864 01c4 36040000 		.4byte	0x436
 865 01c8 00       		.byte	0
 866 01c9 14       		.uleb128 0x14
 867 01ca B0060000 		.4byte	.LASF33
 868 01ce 02       		.byte	0x2
 869 01cf 50       		.byte	0x50
 870 01d0 71060000 		.4byte	.LASF35
 871 01d4 DC010000 		.4byte	0x1dc
 872 01d8 E2010000 		.4byte	0x1e2
 873 01dc 13       		.uleb128 0x13
 874 01dd 36040000 		.4byte	0x436
 875 01e1 00       		.byte	0
 876 01e2 14       		.uleb128 0x14
 877 01e3 01070000 		.4byte	.LASF34
 878 01e7 02       		.byte	0x2
 879 01e8 59       		.byte	0x59
 880 01e9 8B020000 		.4byte	.LASF36
 881 01ed F5010000 		.4byte	0x1f5
 882 01f1 FB010000 		.4byte	0x1fb
 883 01f5 13       		.uleb128 0x13
 884 01f6 36040000 		.4byte	0x436
 885 01fa 00       		.byte	0
 886 01fb 14       		.uleb128 0x14
 887 01fc 6B060000 		.4byte	.LASF37
 888 0200 02       		.byte	0x2
 889 0201 65       		.byte	0x65
 890 0202 4F040000 		.4byte	.LASF38
 891 0206 0E020000 		.4byte	0x20e
 892 020a 1E020000 		.4byte	0x21e
 893 020e 13       		.uleb128 0x13
 894 020f 36040000 		.4byte	0x436
 895 0213 15       		.uleb128 0x15
 896 0214 25000000 		.4byte	0x25
 897 0218 15       		.uleb128 0x15
 898 0219 25000000 		.4byte	0x25
 899 021d 00       		.byte	0
 900 021e 14       		.uleb128 0x14
 901 021f 52070000 		.4byte	.LASF39
 902 0223 02       		.byte	0x2
 903 0224 70       		.byte	0x70
 904 0225 9D030000 		.4byte	.LASF40
 905 0229 31020000 		.4byte	0x231
 906 022d 3C020000 		.4byte	0x23c
 907 0231 13       		.uleb128 0x13
 908 0232 36040000 		.4byte	0x436
 909 0236 15       		.uleb128 0x15
 910 0237 25000000 		.4byte	0x25
 911 023b 00       		.byte	0
ARM GAS  /var/folders/dt/hjs72d_11kddbzhkd4h37c6c0000gn/T//ccCZYdSq.s 			page 17


 912 023c 12       		.uleb128 0x12
 913 023d 28030000 		.4byte	.LASF42
 914 0241 02       		.byte	0x2
 915 0242 7B       		.byte	0x7b
 916 0243 C6020000 		.4byte	.LASF44
 917 0247 25000000 		.4byte	0x25
 918 024b 53020000 		.4byte	0x253
 919 024f 59020000 		.4byte	0x259
 920 0253 13       		.uleb128 0x13
 921 0254 36040000 		.4byte	0x436
 922 0258 00       		.byte	0
 923 0259 12       		.uleb128 0x12
 924 025a C0060000 		.4byte	.LASF45
 925 025e 02       		.byte	0x2
 926 025f 85       		.byte	0x85
 927 0260 12020000 		.4byte	.LASF46
 928 0264 25000000 		.4byte	0x25
 929 0268 70020000 		.4byte	0x270
 930 026c 76020000 		.4byte	0x276
 931 0270 13       		.uleb128 0x13
 932 0271 36040000 		.4byte	0x436
 933 0275 00       		.byte	0
 934 0276 12       		.uleb128 0x12
 935 0277 01030000 		.4byte	.LASF47
 936 027b 02       		.byte	0x2
 937 027c 91       		.byte	0x91
 938 027d 40050000 		.4byte	.LASF48
 939 0281 25000000 		.4byte	0x25
 940 0285 8D020000 		.4byte	0x28d
 941 0289 98020000 		.4byte	0x298
 942 028d 13       		.uleb128 0x13
 943 028e 36040000 		.4byte	0x436
 944 0292 15       		.uleb128 0x15
 945 0293 25000000 		.4byte	0x25
 946 0297 00       		.byte	0
 947 0298 12       		.uleb128 0x12
 948 0299 11070000 		.4byte	.LASF49
 949 029d 02       		.byte	0x2
 950 029e 9D       		.byte	0x9d
 951 029f 6A040000 		.4byte	.LASF50
 952 02a3 25000000 		.4byte	0x25
 953 02a7 AF020000 		.4byte	0x2af
 954 02ab BA020000 		.4byte	0x2ba
 955 02af 13       		.uleb128 0x13
 956 02b0 36040000 		.4byte	0x436
 957 02b4 15       		.uleb128 0x15
 958 02b5 25000000 		.4byte	0x25
 959 02b9 00       		.byte	0
 960 02ba 12       		.uleb128 0x12
 961 02bb EE050000 		.4byte	.LASF51
 962 02bf 02       		.byte	0x2
 963 02c0 A8       		.byte	0xa8
 964 02c1 56000000 		.4byte	.LASF52
 965 02c5 25000000 		.4byte	0x25
 966 02c9 D1020000 		.4byte	0x2d1
 967 02cd D7020000 		.4byte	0x2d7
 968 02d1 13       		.uleb128 0x13
ARM GAS  /var/folders/dt/hjs72d_11kddbzhkd4h37c6c0000gn/T//ccCZYdSq.s 			page 18


 969 02d2 36040000 		.4byte	0x436
 970 02d6 00       		.byte	0
 971 02d7 12       		.uleb128 0x12
 972 02d8 ED080000 		.4byte	.LASF53
 973 02dc 02       		.byte	0x2
 974 02dd B1       		.byte	0xb1
 975 02de 06000000 		.4byte	.LASF54
 976 02e2 25000000 		.4byte	0x25
 977 02e6 EE020000 		.4byte	0x2ee
 978 02ea F4020000 		.4byte	0x2f4
 979 02ee 13       		.uleb128 0x13
 980 02ef 36040000 		.4byte	0x436
 981 02f3 00       		.byte	0
 982 02f4 12       		.uleb128 0x12
 983 02f5 C7030000 		.4byte	.LASF55
 984 02f9 02       		.byte	0x2
 985 02fa BC       		.byte	0xbc
 986 02fb C9060000 		.4byte	.LASF56
 987 02ff 25000000 		.4byte	0x25
 988 0303 0B030000 		.4byte	0x30b
 989 0307 16030000 		.4byte	0x316
 990 030b 13       		.uleb128 0x13
 991 030c 36040000 		.4byte	0x436
 992 0310 15       		.uleb128 0x15
 993 0311 25000000 		.4byte	0x25
 994 0315 00       		.byte	0
 995 0316 12       		.uleb128 0x12
 996 0317 98070000 		.4byte	.LASF57
 997 031b 02       		.byte	0x2
 998 031c C8       		.byte	0xc8
 999 031d 08060000 		.4byte	.LASF58
 1000 0321 25000000 		.4byte	0x25
 1001 0325 2D030000 		.4byte	0x32d
 1002 0329 38030000 		.4byte	0x338
 1003 032d 13       		.uleb128 0x13
 1004 032e 36040000 		.4byte	0x436
 1005 0332 15       		.uleb128 0x15
 1006 0333 25000000 		.4byte	0x25
 1007 0337 00       		.byte	0
 1008 0338 12       		.uleb128 0x12
 1009 0339 E8010000 		.4byte	.LASF59
 1010 033d 02       		.byte	0x2
 1011 033e D3       		.byte	0xd3
 1012 033f 1F050000 		.4byte	.LASF60
 1013 0343 25000000 		.4byte	0x25
 1014 0347 4F030000 		.4byte	0x34f
 1015 034b 55030000 		.4byte	0x355
 1016 034f 13       		.uleb128 0x13
 1017 0350 36040000 		.4byte	0x436
 1018 0354 00       		.byte	0
 1019 0355 12       		.uleb128 0x12
 1020 0356 17050000 		.4byte	.LASF61
 1021 035a 02       		.byte	0x2
 1022 035b DC       		.byte	0xdc
 1023 035c FA080000 		.4byte	.LASF62
 1024 0360 25000000 		.4byte	0x25
 1025 0364 6C030000 		.4byte	0x36c
ARM GAS  /var/folders/dt/hjs72d_11kddbzhkd4h37c6c0000gn/T//ccCZYdSq.s 			page 19


 1026 0368 72030000 		.4byte	0x372
 1027 036c 13       		.uleb128 0x13
 1028 036d 36040000 		.4byte	0x436
 1029 0371 00       		.byte	0
 1030 0372 12       		.uleb128 0x12
 1031 0373 62080000 		.4byte	.LASF63
 1032 0377 02       		.byte	0x2
 1033 0378 E7       		.byte	0xe7
 1034 0379 B8080000 		.4byte	.LASF64
 1035 037d 25000000 		.4byte	0x25
 1036 0381 89030000 		.4byte	0x389
 1037 0385 94030000 		.4byte	0x394
 1038 0389 13       		.uleb128 0x13
 1039 038a 36040000 		.4byte	0x436
 1040 038e 15       		.uleb128 0x15
 1041 038f 25000000 		.4byte	0x25
 1042 0393 00       		.byte	0
 1043 0394 12       		.uleb128 0x12
 1044 0395 70030000 		.4byte	.LASF65
 1045 0399 02       		.byte	0x2
 1046 039a F3       		.byte	0xf3
 1047 039b 7C030000 		.4byte	.LASF66
 1048 039f 25000000 		.4byte	0x25
 1049 03a3 AB030000 		.4byte	0x3ab
 1050 03a7 B6030000 		.4byte	0x3b6
 1051 03ab 13       		.uleb128 0x13
 1052 03ac 36040000 		.4byte	0x436
 1053 03b0 15       		.uleb128 0x15
 1054 03b1 25000000 		.4byte	0x25
 1055 03b5 00       		.byte	0
 1056 03b6 16       		.uleb128 0x16
 1057 03b7 BC020000 		.4byte	.LASF67
 1058 03bb 02       		.byte	0x2
 1059 03bc 0001     		.2byte	0x100
 1060 03be 93080000 		.4byte	.LASF69
 1061 03c2 25000000 		.4byte	0x25
 1062 03c6 CE030000 		.4byte	0x3ce
 1063 03ca D4030000 		.4byte	0x3d4
 1064 03ce 13       		.uleb128 0x13
 1065 03cf 36040000 		.4byte	0x436
 1066 03d3 00       		.byte	0
 1067 03d4 16       		.uleb128 0x16
 1068 03d5 D0070000 		.4byte	.LASF68
 1069 03d9 02       		.byte	0x2
 1070 03da 0901     		.2byte	0x109
 1071 03dc DD040000 		.4byte	.LASF70
 1072 03e0 25000000 		.4byte	0x25
 1073 03e4 EC030000 		.4byte	0x3ec
 1074 03e8 F2030000 		.4byte	0x3f2
 1075 03ec 13       		.uleb128 0x13
 1076 03ed 36040000 		.4byte	0x436
 1077 03f1 00       		.byte	0
 1078 03f2 16       		.uleb128 0x16
 1079 03f3 3F020000 		.4byte	.LASF71
 1080 03f7 02       		.byte	0x2
 1081 03f8 1401     		.2byte	0x114
 1082 03fa E9030000 		.4byte	.LASF72
ARM GAS  /var/folders/dt/hjs72d_11kddbzhkd4h37c6c0000gn/T//ccCZYdSq.s 			page 20


 1083 03fe 25000000 		.4byte	0x25
 1084 0402 0A040000 		.4byte	0x40a
 1085 0406 15040000 		.4byte	0x415
 1086 040a 13       		.uleb128 0x13
 1087 040b 36040000 		.4byte	0x436
 1088 040f 15       		.uleb128 0x15
 1089 0410 25000000 		.4byte	0x25
 1090 0414 00       		.byte	0
 1091 0415 17       		.uleb128 0x17
 1092 0416 60070000 		.4byte	.LASF73
 1093 041a 02       		.byte	0x2
 1094 041b 2001     		.2byte	0x120
 1095 041d DB070000 		.4byte	.LASF135
 1096 0421 25000000 		.4byte	0x25
 1097 0425 29040000 		.4byte	0x429
 1098 0429 13       		.uleb128 0x13
 1099 042a 36040000 		.4byte	0x436
 1100 042e 15       		.uleb128 0x15
 1101 042f 25000000 		.4byte	0x25
 1102 0433 00       		.byte	0
 1103 0434 00       		.byte	0
 1104 0435 00       		.byte	0
 1105 0436 0D       		.uleb128 0xd
 1106 0437 04       		.byte	0x4
 1107 0438 8B010000 		.4byte	0x18b
 1108 043c 0A       		.uleb128 0xa
 1109 043d 01       		.byte	0x1
 1110 043e 45000000 		.4byte	0x45
 1111 0442 01       		.byte	0x1
 1112 0443 12       		.byte	0x12
 1113 0444 97040000 		.4byte	0x497
 1114 0448 0B       		.uleb128 0xb
 1115 0449 F3060000 		.4byte	.LASF74
 1116 044d 00       		.byte	0
 1117 044e 0B       		.uleb128 0xb
 1118 044f 77000000 		.4byte	.LASF75
 1119 0453 01       		.byte	0x1
 1120 0454 0B       		.uleb128 0xb
 1121 0455 3A050000 		.4byte	.LASF76
 1122 0459 02       		.byte	0x2
 1123 045a 0B       		.uleb128 0xb
 1124 045b 8A050000 		.4byte	.LASF77
 1125 045f 03       		.byte	0x3
 1126 0460 0B       		.uleb128 0xb
 1127 0461 B9010000 		.4byte	.LASF78
 1128 0465 04       		.byte	0x4
 1129 0466 0B       		.uleb128 0xb
 1130 0467 34000000 		.4byte	.LASF79
 1131 046b 05       		.byte	0x5
 1132 046c 0B       		.uleb128 0xb
 1133 046d FA010000 		.4byte	.LASF80
 1134 0471 06       		.byte	0x6
 1135 0472 0B       		.uleb128 0xb
 1136 0473 A9050000 		.4byte	.LASF81
 1137 0477 07       		.byte	0x7
 1138 0478 0B       		.uleb128 0xb
 1139 0479 2F020000 		.4byte	.LASF82
ARM GAS  /var/folders/dt/hjs72d_11kddbzhkd4h37c6c0000gn/T//ccCZYdSq.s 			page 21


 1140 047d 08       		.byte	0x8
 1141 047e 0B       		.uleb128 0xb
 1142 047f D8080000 		.4byte	.LASF83
 1143 0483 09       		.byte	0x9
 1144 0484 0B       		.uleb128 0xb
 1145 0485 E2020000 		.4byte	.LASF84
 1146 0489 0A       		.byte	0xa
 1147 048a 0B       		.uleb128 0xb
 1148 048b B6060000 		.4byte	.LASF85
 1149 048f 0B       		.byte	0xb
 1150 0490 0B       		.uleb128 0xb
 1151 0491 63020000 		.4byte	.LASF86
 1152 0495 0C       		.byte	0xc
 1153 0496 00       		.byte	0
 1154 0497 18       		.uleb128 0x18
 1155 0498 16090000 		.4byte	.LASF87
 1156 049c 03       		.byte	0x3
 1157 049d 0E01     		.2byte	0x10e
 1158 049f 25000000 		.4byte	0x25
 1159 04a3 03       		.byte	0x3
 1160 04a4 D3040000 		.4byte	0x4d3
 1161 04a8 19       		.uleb128 0x19
 1162 04a9 7800     		.ascii	"x\000"
 1163 04ab 03       		.byte	0x3
 1164 04ac 0E01     		.2byte	0x10e
 1165 04ae 75010000 		.4byte	0x175
 1166 04b2 19       		.uleb128 0x19
 1167 04b3 7900     		.ascii	"y\000"
 1168 04b5 03       		.byte	0x3
 1169 04b6 0E01     		.2byte	0x10e
 1170 04b8 75010000 		.4byte	0x175
 1171 04bc 1A       		.uleb128 0x1a
 1172 04bd 787300   		.ascii	"xs\000"
 1173 04c0 03       		.byte	0x3
 1174 04c1 1001     		.2byte	0x110
 1175 04c3 F4000000 		.4byte	0xf4
 1176 04c7 1A       		.uleb128 0x1a
 1177 04c8 797300   		.ascii	"ys\000"
 1178 04cb 03       		.byte	0x3
 1179 04cc 1101     		.2byte	0x111
 1180 04ce F4000000 		.4byte	0xf4
 1181 04d2 00       		.byte	0
 1182 04d3 1B       		.uleb128 0x1b
 1183 04d4 AC010000 		.4byte	0x1ac
 1184 04d8 03       		.byte	0x3
 1185 04d9 E1040000 		.4byte	0x4e1
 1186 04dd EB040000 		.4byte	0x4eb
 1187 04e1 1C       		.uleb128 0x1c
 1188 04e2 BF050000 		.4byte	.LASF92
 1189 04e6 EB040000 		.4byte	0x4eb
 1190 04ea 00       		.byte	0
 1191 04eb 09       		.uleb128 0x9
 1192 04ec 36040000 		.4byte	0x436
 1193 04f0 18       		.uleb128 0x18
 1194 04f1 CC010000 		.4byte	.LASF88
 1195 04f5 03       		.byte	0x3
 1196 04f6 1C01     		.2byte	0x11c
ARM GAS  /var/folders/dt/hjs72d_11kddbzhkd4h37c6c0000gn/T//ccCZYdSq.s 			page 22


 1197 04f8 25000000 		.4byte	0x25
 1198 04fc 03       		.byte	0x3
 1199 04fd 17050000 		.4byte	0x517
 1200 0501 19       		.uleb128 0x19
 1201 0502 7800     		.ascii	"x\000"
 1202 0504 03       		.byte	0x3
 1203 0505 1C01     		.2byte	0x11c
 1204 0507 25000000 		.4byte	0x25
 1205 050b 1A       		.uleb128 0x1a
 1206 050c 787300   		.ascii	"xs\000"
 1207 050f 03       		.byte	0x3
 1208 0510 1E01     		.2byte	0x11e
 1209 0512 F4000000 		.4byte	0xf4
 1210 0516 00       		.byte	0
 1211 0517 18       		.uleb128 0x18
 1212 0518 E1010000 		.4byte	.LASF89
 1213 051c 04       		.byte	0x4
 1214 051d 3405     		.2byte	0x534
 1215 051f 9E000000 		.4byte	0x9e
 1216 0523 03       		.byte	0x3
 1217 0524 4D050000 		.4byte	0x54d
 1218 0528 19       		.uleb128 0x19
 1219 0529 6F703100 		.ascii	"op1\000"
 1220 052d 04       		.byte	0x4
 1221 052e 3405     		.2byte	0x534
 1222 0530 9E000000 		.4byte	0x9e
 1223 0534 19       		.uleb128 0x19
 1224 0535 6F703200 		.ascii	"op2\000"
 1225 0539 04       		.byte	0x4
 1226 053a 3405     		.2byte	0x534
 1227 053c 9E000000 		.4byte	0x9e
 1228 0540 1D       		.uleb128 0x1d
 1229 0541 70020000 		.4byte	.LASF90
 1230 0545 04       		.byte	0x4
 1231 0546 3605     		.2byte	0x536
 1232 0548 9E000000 		.4byte	0x9e
 1233 054c 00       		.byte	0
 1234 054d 18       		.uleb128 0x18
 1235 054e 8C080000 		.4byte	.LASF91
 1236 0552 04       		.byte	0x4
 1237 0553 2C05     		.2byte	0x52c
 1238 0555 9E000000 		.4byte	0x9e
 1239 0559 03       		.byte	0x3
 1240 055a 83050000 		.4byte	0x583
 1241 055e 19       		.uleb128 0x19
 1242 055f 6F703100 		.ascii	"op1\000"
 1243 0563 04       		.byte	0x4
 1244 0564 2C05     		.2byte	0x52c
 1245 0566 9E000000 		.4byte	0x9e
 1246 056a 19       		.uleb128 0x19
 1247 056b 6F703200 		.ascii	"op2\000"
 1248 056f 04       		.byte	0x4
 1249 0570 2C05     		.2byte	0x52c
 1250 0572 9E000000 		.4byte	0x9e
 1251 0576 1D       		.uleb128 0x1d
 1252 0577 70020000 		.4byte	.LASF90
 1253 057b 04       		.byte	0x4
ARM GAS  /var/folders/dt/hjs72d_11kddbzhkd4h37c6c0000gn/T//ccCZYdSq.s 			page 23


 1254 057c 2E05     		.2byte	0x52e
 1255 057e 9E000000 		.4byte	0x9e
 1256 0582 00       		.byte	0
 1257 0583 1B       		.uleb128 0x1b
 1258 0584 FB010000 		.4byte	0x1fb
 1259 0588 03       		.byte	0x3
 1260 0589 91050000 		.4byte	0x591
 1261 058d B0050000 		.4byte	0x5b0
 1262 0591 1C       		.uleb128 0x1c
 1263 0592 BF050000 		.4byte	.LASF92
 1264 0596 EB040000 		.4byte	0x4eb
 1265 059a 1E       		.uleb128 0x1e
 1266 059b 663000   		.ascii	"f0\000"
 1267 059e 02       		.byte	0x2
 1268 059f 65       		.byte	0x65
 1269 05a0 75010000 		.4byte	0x175
 1270 05a4 1F       		.uleb128 0x1f
 1271 05a5 77070000 		.4byte	.LASF93
 1272 05a9 02       		.byte	0x2
 1273 05aa 65       		.byte	0x65
 1274 05ab 75010000 		.4byte	0x175
 1275 05af 00       		.byte	0
 1276 05b0 1B       		.uleb128 0x1b
 1277 05b1 E2010000 		.4byte	0x1e2
 1278 05b5 03       		.byte	0x3
 1279 05b6 BE050000 		.4byte	0x5be
 1280 05ba C8050000 		.4byte	0x5c8
 1281 05be 1C       		.uleb128 0x1c
 1282 05bf BF050000 		.4byte	.LASF92
 1283 05c3 EB040000 		.4byte	0x4eb
 1284 05c7 00       		.byte	0
 1285 05c8 1B       		.uleb128 0x1b
 1286 05c9 C9010000 		.4byte	0x1c9
 1287 05cd 03       		.byte	0x3
 1288 05ce D6050000 		.4byte	0x5d6
 1289 05d2 E0050000 		.4byte	0x5e0
 1290 05d6 1C       		.uleb128 0x1c
 1291 05d7 BF050000 		.4byte	.LASF92
 1292 05db EB040000 		.4byte	0x4eb
 1293 05df 00       		.byte	0
 1294 05e0 18       		.uleb128 0x18
 1295 05e1 6F070000 		.4byte	.LASF94
 1296 05e5 03       		.byte	0x3
 1297 05e6 3903     		.2byte	0x339
 1298 05e8 25000000 		.4byte	0x25
 1299 05ec 03       		.byte	0x3
 1300 05ed 13060000 		.4byte	0x613
 1301 05f1 19       		.uleb128 0x19
 1302 05f2 667200   		.ascii	"fr\000"
 1303 05f5 03       		.byte	0x3
 1304 05f6 3903     		.2byte	0x339
 1305 05f8 75010000 		.4byte	0x175
 1306 05fc 19       		.uleb128 0x19
 1307 05fd 783000   		.ascii	"x0\000"
 1308 0600 03       		.byte	0x3
 1309 0601 3903     		.2byte	0x339
 1310 0603 75010000 		.4byte	0x175
ARM GAS  /var/folders/dt/hjs72d_11kddbzhkd4h37c6c0000gn/T//ccCZYdSq.s 			page 24


 1311 0607 19       		.uleb128 0x19
 1312 0608 783100   		.ascii	"x1\000"
 1313 060b 03       		.byte	0x3
 1314 060c 3903     		.2byte	0x339
 1315 060e 75010000 		.4byte	0x175
 1316 0612 00       		.byte	0
 1317 0613 1B       		.uleb128 0x1b
 1318 0614 3C020000 		.4byte	0x23c
 1319 0618 03       		.byte	0x3
 1320 0619 21060000 		.4byte	0x621
 1321 061d 36060000 		.4byte	0x636
 1322 0621 1C       		.uleb128 0x1c
 1323 0622 BF050000 		.4byte	.LASF92
 1324 0626 EB040000 		.4byte	0x4eb
 1325 062a 20       		.uleb128 0x20
 1326 062b EE060000 		.4byte	.LASF95
 1327 062f 02       		.byte	0x2
 1328 0630 7D       		.byte	0x7d
 1329 0631 75010000 		.4byte	0x175
 1330 0635 00       		.byte	0
 1331 0636 1B       		.uleb128 0x1b
 1332 0637 BA020000 		.4byte	0x2ba
 1333 063b 03       		.byte	0x3
 1334 063c 44060000 		.4byte	0x644
 1335 0640 4E060000 		.4byte	0x64e
 1336 0644 1C       		.uleb128 0x1c
 1337 0645 BF050000 		.4byte	.LASF92
 1338 0649 EB040000 		.4byte	0x4eb
 1339 064d 00       		.byte	0
 1340 064e 1B       		.uleb128 0x1b
 1341 064f 38030000 		.4byte	0x338
 1342 0653 03       		.byte	0x3
 1343 0654 5C060000 		.4byte	0x65c
 1344 0658 66060000 		.4byte	0x666
 1345 065c 1C       		.uleb128 0x1c
 1346 065d BF050000 		.4byte	.LASF92
 1347 0661 EB040000 		.4byte	0x4eb
 1348 0665 00       		.byte	0
 1349 0666 1B       		.uleb128 0x1b
 1350 0667 B6030000 		.4byte	0x3b6
 1351 066b 03       		.byte	0x3
 1352 066c 74060000 		.4byte	0x674
 1353 0670 7E060000 		.4byte	0x67e
 1354 0674 1C       		.uleb128 0x1c
 1355 0675 BF050000 		.4byte	.LASF92
 1356 0679 EB040000 		.4byte	0x4eb
 1357 067d 00       		.byte	0
 1358 067e 1B       		.uleb128 0x1b
 1359 067f 59020000 		.4byte	0x259
 1360 0683 03       		.byte	0x3
 1361 0684 8C060000 		.4byte	0x68c
 1362 0688 A1060000 		.4byte	0x6a1
 1363 068c 1C       		.uleb128 0x1c
 1364 068d BF050000 		.4byte	.LASF92
 1365 0691 EB040000 		.4byte	0x4eb
 1366 0695 20       		.uleb128 0x20
 1367 0696 EE060000 		.4byte	.LASF95
ARM GAS  /var/folders/dt/hjs72d_11kddbzhkd4h37c6c0000gn/T//ccCZYdSq.s 			page 25


 1368 069a 02       		.byte	0x2
 1369 069b 87       		.byte	0x87
 1370 069c 75010000 		.4byte	0x175
 1371 06a0 00       		.byte	0
 1372 06a1 1B       		.uleb128 0x1b
 1373 06a2 D7020000 		.4byte	0x2d7
 1374 06a6 03       		.byte	0x3
 1375 06a7 AF060000 		.4byte	0x6af
 1376 06ab B9060000 		.4byte	0x6b9
 1377 06af 1C       		.uleb128 0x1c
 1378 06b0 BF050000 		.4byte	.LASF92
 1379 06b4 EB040000 		.4byte	0x4eb
 1380 06b8 00       		.byte	0
 1381 06b9 1B       		.uleb128 0x1b
 1382 06ba 55030000 		.4byte	0x355
 1383 06be 03       		.byte	0x3
 1384 06bf C7060000 		.4byte	0x6c7
 1385 06c3 D1060000 		.4byte	0x6d1
 1386 06c7 1C       		.uleb128 0x1c
 1387 06c8 BF050000 		.4byte	.LASF92
 1388 06cc EB040000 		.4byte	0x4eb
 1389 06d0 00       		.byte	0
 1390 06d1 1B       		.uleb128 0x1b
 1391 06d2 D4030000 		.4byte	0x3d4
 1392 06d6 03       		.byte	0x3
 1393 06d7 DF060000 		.4byte	0x6df
 1394 06db E9060000 		.4byte	0x6e9
 1395 06df 1C       		.uleb128 0x1c
 1396 06e0 BF050000 		.4byte	.LASF92
 1397 06e4 EB040000 		.4byte	0x4eb
 1398 06e8 00       		.byte	0
 1399 06e9 1B       		.uleb128 0x1b
 1400 06ea 76020000 		.4byte	0x276
 1401 06ee 03       		.byte	0x3
 1402 06ef F7060000 		.4byte	0x6f7
 1403 06f3 17070000 		.4byte	0x717
 1404 06f7 1C       		.uleb128 0x1c
 1405 06f8 BF050000 		.4byte	.LASF92
 1406 06fc EB040000 		.4byte	0x4eb
 1407 0700 1F       		.uleb128 0x1f
 1408 0701 21030000 		.4byte	.LASF96
 1409 0705 02       		.byte	0x2
 1410 0706 91       		.byte	0x91
 1411 0707 75010000 		.4byte	0x175
 1412 070b 21       		.uleb128 0x21
 1413 070c 70686900 		.ascii	"phi\000"
 1414 0710 02       		.byte	0x2
 1415 0711 93       		.byte	0x93
 1416 0712 75010000 		.4byte	0x175
 1417 0716 00       		.byte	0
 1418 0717 1B       		.uleb128 0x1b
 1419 0718 F4020000 		.4byte	0x2f4
 1420 071c 03       		.byte	0x3
 1421 071d 25070000 		.4byte	0x725
 1422 0721 45070000 		.4byte	0x745
 1423 0725 1C       		.uleb128 0x1c
 1424 0726 BF050000 		.4byte	.LASF92
ARM GAS  /var/folders/dt/hjs72d_11kddbzhkd4h37c6c0000gn/T//ccCZYdSq.s 			page 26


 1425 072a EB040000 		.4byte	0x4eb
 1426 072e 1F       		.uleb128 0x1f
 1427 072f 21030000 		.4byte	.LASF96
 1428 0733 02       		.byte	0x2
 1429 0734 BC       		.byte	0xbc
 1430 0735 75010000 		.4byte	0x175
 1431 0739 21       		.uleb128 0x21
 1432 073a 70686900 		.ascii	"phi\000"
 1433 073e 02       		.byte	0x2
 1434 073f BE       		.byte	0xbe
 1435 0740 0B010000 		.4byte	0x10b
 1436 0744 00       		.byte	0
 1437 0745 1B       		.uleb128 0x1b
 1438 0746 72030000 		.4byte	0x372
 1439 074a 03       		.byte	0x3
 1440 074b 53070000 		.4byte	0x753
 1441 074f 73070000 		.4byte	0x773
 1442 0753 1C       		.uleb128 0x1c
 1443 0754 BF050000 		.4byte	.LASF92
 1444 0758 EB040000 		.4byte	0x4eb
 1445 075c 1F       		.uleb128 0x1f
 1446 075d 21030000 		.4byte	.LASF96
 1447 0761 02       		.byte	0x2
 1448 0762 E7       		.byte	0xe7
 1449 0763 75010000 		.4byte	0x175
 1450 0767 21       		.uleb128 0x21
 1451 0768 70686900 		.ascii	"phi\000"
 1452 076c 02       		.byte	0x2
 1453 076d E9       		.byte	0xe9
 1454 076e 0B010000 		.4byte	0x10b
 1455 0772 00       		.byte	0
 1456 0773 1B       		.uleb128 0x1b
 1457 0774 F2030000 		.4byte	0x3f2
 1458 0778 03       		.byte	0x3
 1459 0779 81070000 		.4byte	0x781
 1460 077d A3070000 		.4byte	0x7a3
 1461 0781 1C       		.uleb128 0x1c
 1462 0782 BF050000 		.4byte	.LASF92
 1463 0786 EB040000 		.4byte	0x4eb
 1464 078a 22       		.uleb128 0x22
 1465 078b 21030000 		.4byte	.LASF96
 1466 078f 02       		.byte	0x2
 1467 0790 1401     		.2byte	0x114
 1468 0792 75010000 		.4byte	0x175
 1469 0796 1A       		.uleb128 0x1a
 1470 0797 70686900 		.ascii	"phi\000"
 1471 079b 02       		.byte	0x2
 1472 079c 1601     		.2byte	0x116
 1473 079e 0B010000 		.4byte	0x10b
 1474 07a2 00       		.byte	0
 1475 07a3 18       		.uleb128 0x18
 1476 07a4 53020000 		.4byte	.LASF97
 1477 07a8 03       		.byte	0x3
 1478 07a9 3601     		.2byte	0x136
 1479 07ab 25000000 		.4byte	0x25
 1480 07af 03       		.byte	0x3
 1481 07b0 BF070000 		.4byte	0x7bf
ARM GAS  /var/folders/dt/hjs72d_11kddbzhkd4h37c6c0000gn/T//ccCZYdSq.s 			page 27


 1482 07b4 19       		.uleb128 0x19
 1483 07b5 7800     		.ascii	"x\000"
 1484 07b7 03       		.byte	0x3
 1485 07b8 3601     		.2byte	0x136
 1486 07ba 25000000 		.4byte	0x25
 1487 07be 00       		.byte	0
 1488 07bf 23       		.uleb128 0x23
 1489 07c0 C4050000 		.4byte	.LASF136
 1490 07c4 01       		.byte	0x1
 1491 07c5 E0070000 		.4byte	0x7e0
 1492 07c9 1F       		.uleb128 0x1f
 1493 07ca F2020000 		.4byte	.LASF98
 1494 07ce 01       		.byte	0x1
 1495 07cf 8B       		.byte	0x8b
 1496 07d0 2C000000 		.4byte	0x2c
 1497 07d4 1F       		.uleb128 0x1f
 1498 07d5 30030000 		.4byte	.LASF99
 1499 07d9 01       		.byte	0x1
 1500 07da 8B       		.byte	0x8b
 1501 07db 2C000000 		.4byte	0x2c
 1502 07df 00       		.byte	0
 1503 07e0 24       		.uleb128 0x24
 1504 07e1 2E060000 		.4byte	.LASF100
 1505 07e5 01       		.byte	0x1
 1506 07e6 26       		.byte	0x26
 1507 07e7 00000000 		.4byte	.LFB251
 1508 07eb 18000000 		.4byte	.LFE251-.LFB251
 1509 07ef 01       		.uleb128 0x1
 1510 07f0 9C       		.byte	0x9c
 1511 07f1 51080000 		.4byte	0x851
 1512 07f5 25       		.uleb128 0x25
 1513 07f6 C3010000 		.4byte	.LASF101
 1514 07fa 01       		.byte	0x1
 1515 07fb 26       		.byte	0x26
 1516 07fc A9000000 		.4byte	0xa9
 1517 0800 01       		.uleb128 0x1
 1518 0801 50       		.byte	0x50
 1519 0802 26       		.uleb128 0x26
 1520 0803 61706900 		.ascii	"api\000"
 1521 0807 01       		.byte	0x1
 1522 0808 26       		.byte	0x26
 1523 0809 A9000000 		.4byte	0xa9
 1524 080d 00000000 		.4byte	.LLST0
 1525 0811 27       		.uleb128 0x27
 1526 0812 B0050000 		.4byte	0x5b0
 1527 0816 00000000 		.4byte	.LBB85
 1528 081a 02000000 		.4byte	.LBE85-.LBB85
 1529 081e 01       		.byte	0x1
 1530 081f 28       		.byte	0x28
 1531 0820 31080000 		.4byte	0x831
 1532 0824 28       		.uleb128 0x28
 1533 0825 BE050000 		.4byte	0x5be
 1534 0829 06       		.uleb128 0x6
 1535 082a 03       		.byte	0x3
 1536 082b 00000000 		.4byte	_ZL5s_lfo
 1537 082f 9F       		.byte	0x9f
 1538 0830 00       		.byte	0
ARM GAS  /var/folders/dt/hjs72d_11kddbzhkd4h37c6c0000gn/T//ccCZYdSq.s 			page 28


 1539 0831 29       		.uleb128 0x29
 1540 0832 83050000 		.4byte	0x583
 1541 0836 02000000 		.4byte	.LBB87
 1542 083a 16000000 		.4byte	.LBE87-.LBB87
 1543 083e 01       		.byte	0x1
 1544 083f 29       		.byte	0x29
 1545 0840 2A       		.uleb128 0x2a
 1546 0841 A4050000 		.4byte	0x5a4
 1547 0845 2A       		.uleb128 0x2a
 1548 0846 9A050000 		.4byte	0x59a
 1549 084a 2A       		.uleb128 0x2a
 1550 084b 91050000 		.4byte	0x591
 1551 084f 00       		.byte	0
 1552 0850 00       		.byte	0
 1553 0851 24       		.uleb128 0x24
 1554 0852 FA050000 		.4byte	.LASF102
 1555 0856 01       		.byte	0x1
 1556 0857 2C       		.byte	0x2c
 1557 0858 18000000 		.4byte	.LFB252
 1558 085c F0010000 		.4byte	.LFE252-.LFB252
 1559 0860 01       		.uleb128 0x1
 1560 0861 9C       		.byte	0x9c
 1561 0862 470C0000 		.4byte	0xc47
 1562 0866 2B       		.uleb128 0x2b
 1563 0867 D5040000 		.4byte	.LASF103
 1564 086b 01       		.byte	0x1
 1565 086c 2C       		.byte	0x2c
 1566 086d 6F010000 		.4byte	0x16f
 1567 0871 21000000 		.4byte	.LLST1
 1568 0875 2B       		.uleb128 0x2b
 1569 0876 82050000 		.4byte	.LASF104
 1570 087a 01       		.byte	0x1
 1571 087b 2C       		.byte	0x2c
 1572 087c 7A010000 		.4byte	0x17a
 1573 0880 42000000 		.4byte	.LLST2
 1574 0884 2B       		.uleb128 0x2b
 1575 0885 FD040000 		.4byte	.LASF105
 1576 0889 01       		.byte	0x1
 1577 088a 2D       		.byte	0x2d
 1578 088b 6F010000 		.4byte	0x16f
 1579 088f 63000000 		.4byte	.LLST3
 1580 0893 2B       		.uleb128 0x2b
 1581 0894 90050000 		.4byte	.LASF106
 1582 0898 01       		.byte	0x1
 1583 0899 2D       		.byte	0x2d
 1584 089a 7A010000 		.4byte	0x17a
 1585 089e 84000000 		.4byte	.LLST4
 1586 08a2 2B       		.uleb128 0x2b
 1587 08a3 31040000 		.4byte	.LASF107
 1588 08a7 01       		.byte	0x1
 1589 08a8 2E       		.byte	0x2e
 1590 08a9 A9000000 		.4byte	0xa9
 1591 08ad B2000000 		.4byte	.LLST5
 1592 08b1 2C       		.uleb128 0x2c
 1593 08b2 6D7900   		.ascii	"my\000"
 1594 08b5 01       		.byte	0x1
 1595 08b6 30       		.byte	0x30
ARM GAS  /var/folders/dt/hjs72d_11kddbzhkd4h37c6c0000gn/T//ccCZYdSq.s 			page 29


 1596 08b7 7A010000 		.4byte	0x17a
 1597 08bb D2000000 		.4byte	.LLST6
 1598 08bf 2D       		.uleb128 0x2d
 1599 08c0 24070000 		.4byte	.LASF108
 1600 08c4 01       		.byte	0x1
 1601 08c5 31       		.byte	0x31
 1602 08c6 6F010000 		.4byte	0x16f
 1603 08ca 01       		.uleb128 0x1
 1604 08cb 5C       		.byte	0x5c
 1605 08cc 2C       		.uleb128 0x2c
 1606 08cd 737900   		.ascii	"sy\000"
 1607 08d0 01       		.byte	0x1
 1608 08d1 32       		.byte	0x32
 1609 08d2 7A010000 		.4byte	0x17a
 1610 08d6 FD000000 		.4byte	.LLST7
 1611 08da 2E       		.uleb128 0x2e
 1612 08db 7000     		.ascii	"p\000"
 1613 08dd 01       		.byte	0x1
 1614 08de 34       		.byte	0x34
 1615 08df 75010000 		.4byte	0x175
 1616 08e3 02       		.uleb128 0x2
 1617 08e4 90       		.byte	0x90
 1618 08e5 46       		.uleb128 0x46
 1619 08e6 2C       		.uleb128 0x2c
 1620 08e7 705F7A00 		.ascii	"p_z\000"
 1621 08eb 01       		.byte	0x1
 1622 08ec 35       		.byte	0x35
 1623 08ed 25000000 		.4byte	0x25
 1624 08f1 75010000 		.4byte	.LLST8
 1625 08f5 2F       		.uleb128 0x2f
 1626 08f6 00000000 		.4byte	.Ldebug_ranges0+0
 1627 08fa 30       		.uleb128 0x30
 1628 08fb 0C040000 		.4byte	.LASF109
 1629 08ff 01       		.byte	0x1
 1630 0900 3D       		.byte	0x3d
 1631 0901 25000000 		.4byte	0x25
 1632 0905 A1010000 		.4byte	.LLST9
 1633 0909 27       		.uleb128 0x27
 1634 090a C8050000 		.4byte	0x5c8
 1635 090e 26000000 		.4byte	.LBB91
 1636 0912 02000000 		.4byte	.LBE91-.LBB91
 1637 0916 01       		.byte	0x1
 1638 0917 3B       		.byte	0x3b
 1639 0918 22090000 		.4byte	0x922
 1640 091c 2A       		.uleb128 0x2a
 1641 091d D6050000 		.4byte	0x5d6
 1642 0921 00       		.byte	0
 1643 0922 31       		.uleb128 0x31
 1644 0923 E0050000 		.4byte	0x5e0
 1645 0927 30000000 		.4byte	.LBB93
 1646 092b 28000000 		.4byte	.Ldebug_ranges0+0x28
 1647 092f 01       		.byte	0x1
 1648 0930 39       		.byte	0x39
 1649 0931 51090000 		.4byte	0x951
 1650 0935 32       		.uleb128 0x32
 1651 0936 07060000 		.4byte	0x607
 1652 093a 39020000 		.4byte	.LLST10
ARM GAS  /var/folders/dt/hjs72d_11kddbzhkd4h37c6c0000gn/T//ccCZYdSq.s 			page 30


 1653 093e 32       		.uleb128 0x32
 1654 093f FC050000 		.4byte	0x5fc
 1655 0943 4D020000 		.4byte	.LLST11
 1656 0947 32       		.uleb128 0x32
 1657 0948 F1050000 		.4byte	0x5f1
 1658 094c 61020000 		.4byte	.LLST12
 1659 0950 00       		.byte	0
 1660 0951 31       		.uleb128 0x31
 1661 0952 73070000 		.4byte	0x773
 1662 0956 34000000 		.4byte	.LBB96
 1663 095a 40000000 		.4byte	.Ldebug_ranges0+0x40
 1664 095e 01       		.byte	0x1
 1665 095f 6D       		.byte	0x6d
 1666 0960 86090000 		.4byte	0x986
 1667 0964 32       		.uleb128 0x32
 1668 0965 8A070000 		.4byte	0x78a
 1669 0969 79020000 		.4byte	.LLST13
 1670 096d 32       		.uleb128 0x32
 1671 096e 81070000 		.4byte	0x781
 1672 0972 8D020000 		.4byte	.LLST14
 1673 0976 2F       		.uleb128 0x2f
 1674 0977 40000000 		.4byte	.Ldebug_ranges0+0x40
 1675 097b 33       		.uleb128 0x33
 1676 097c 96070000 		.4byte	0x796
 1677 0980 A5020000 		.4byte	.LLST15
 1678 0984 00       		.byte	0
 1679 0985 00       		.byte	0
 1680 0986 31       		.uleb128 0x31
 1681 0987 45070000 		.4byte	0x745
 1682 098b 38000000 		.4byte	.LBB99
 1683 098f 58000000 		.4byte	.Ldebug_ranges0+0x58
 1684 0993 01       		.byte	0x1
 1685 0994 69       		.byte	0x69
 1686 0995 BB090000 		.4byte	0x9bb
 1687 0999 32       		.uleb128 0x32
 1688 099a 5C070000 		.4byte	0x75c
 1689 099e CC020000 		.4byte	.LLST16
 1690 09a2 32       		.uleb128 0x32
 1691 09a3 53070000 		.4byte	0x753
 1692 09a7 E0020000 		.4byte	.LLST17
 1693 09ab 2F       		.uleb128 0x2f
 1694 09ac 58000000 		.4byte	.Ldebug_ranges0+0x58
 1695 09b0 33       		.uleb128 0x33
 1696 09b1 67070000 		.4byte	0x767
 1697 09b5 F8020000 		.4byte	.LLST18
 1698 09b9 00       		.byte	0
 1699 09ba 00       		.byte	0
 1700 09bb 31       		.uleb128 0x31
 1701 09bc 17070000 		.4byte	0x717
 1702 09c0 3C000000 		.4byte	.LBB102
 1703 09c4 70000000 		.4byte	.Ldebug_ranges0+0x70
 1704 09c8 01       		.byte	0x1
 1705 09c9 65       		.byte	0x65
 1706 09ca 4E0A0000 		.4byte	0xa4e
 1707 09ce 32       		.uleb128 0x32
 1708 09cf 2E070000 		.4byte	0x72e
 1709 09d3 1F030000 		.4byte	.LLST19
ARM GAS  /var/folders/dt/hjs72d_11kddbzhkd4h37c6c0000gn/T//ccCZYdSq.s 			page 31


 1710 09d7 32       		.uleb128 0x32
 1711 09d8 25070000 		.4byte	0x725
 1712 09dc 33030000 		.4byte	.LLST20
 1713 09e0 2F       		.uleb128 0x2f
 1714 09e1 70000000 		.4byte	.Ldebug_ranges0+0x70
 1715 09e5 33       		.uleb128 0x33
 1716 09e6 39070000 		.4byte	0x739
 1717 09ea 4B030000 		.4byte	.LLST21
 1718 09ee 31       		.uleb128 0x31
 1719 09ef 17050000 		.4byte	0x517
 1720 09f3 5E000000 		.4byte	.LBB104
 1721 09f7 90000000 		.4byte	.Ldebug_ranges0+0x90
 1722 09fb 02       		.byte	0x2
 1723 09fc BF       		.byte	0xbf
 1724 09fd 1B0A0000 		.4byte	0xa1b
 1725 0a01 32       		.uleb128 0x32
 1726 0a02 34050000 		.4byte	0x534
 1727 0a06 5E030000 		.4byte	.LLST22
 1728 0a0a 2A       		.uleb128 0x2a
 1729 0a0b 28050000 		.4byte	0x528
 1730 0a0f 2F       		.uleb128 0x2f
 1731 0a10 90000000 		.4byte	.Ldebug_ranges0+0x90
 1732 0a14 34       		.uleb128 0x34
 1733 0a15 40050000 		.4byte	0x540
 1734 0a19 00       		.byte	0
 1735 0a1a 00       		.byte	0
 1736 0a1b 29       		.uleb128 0x29
 1737 0a1c 17050000 		.4byte	0x517
 1738 0a20 68010000 		.4byte	.LBB107
 1739 0a24 08000000 		.4byte	.LBE107-.LBB107
 1740 0a28 02       		.byte	0x2
 1741 0a29 BF       		.byte	0xbf
 1742 0a2a 32       		.uleb128 0x32
 1743 0a2b 34050000 		.4byte	0x534
 1744 0a2f 74030000 		.4byte	.LLST23
 1745 0a33 32       		.uleb128 0x32
 1746 0a34 28050000 		.4byte	0x528
 1747 0a38 87030000 		.4byte	.LLST24
 1748 0a3c 35       		.uleb128 0x35
 1749 0a3d 68010000 		.4byte	.LBB108
 1750 0a41 08000000 		.4byte	.LBE108-.LBB108
 1751 0a45 34       		.uleb128 0x34
 1752 0a46 40050000 		.4byte	0x540
 1753 0a4a 00       		.byte	0
 1754 0a4b 00       		.byte	0
 1755 0a4c 00       		.byte	0
 1756 0a4d 00       		.byte	0
 1757 0a4e 31       		.uleb128 0x31
 1758 0a4f 66060000 		.4byte	0x666
 1759 0a53 40000000 		.4byte	.LBB112
 1760 0a57 A8000000 		.4byte	.Ldebug_ranges0+0xa8
 1761 0a5b 01       		.byte	0x1
 1762 0a5c 4D       		.byte	0x4d
 1763 0a5d 6B0A0000 		.4byte	0xa6b
 1764 0a61 32       		.uleb128 0x32
 1765 0a62 74060000 		.4byte	0x674
 1766 0a66 9F030000 		.4byte	.LLST25
ARM GAS  /var/folders/dt/hjs72d_11kddbzhkd4h37c6c0000gn/T//ccCZYdSq.s 			page 32


 1767 0a6a 00       		.byte	0
 1768 0a6b 27       		.uleb128 0x27
 1769 0a6c 13060000 		.4byte	0x613
 1770 0a70 88000000 		.4byte	.LBB121
 1771 0a74 06000000 		.4byte	.LBE121-.LBB121
 1772 0a78 01       		.byte	0x1
 1773 0a79 41       		.byte	0x41
 1774 0a7a 9A0A0000 		.4byte	0xa9a
 1775 0a7e 32       		.uleb128 0x32
 1776 0a7f 21060000 		.4byte	0x621
 1777 0a83 B7030000 		.4byte	.LLST26
 1778 0a87 35       		.uleb128 0x35
 1779 0a88 88000000 		.4byte	.LBB122
 1780 0a8c 06000000 		.4byte	.LBE122-.LBB122
 1781 0a90 36       		.uleb128 0x36
 1782 0a91 2A060000 		.4byte	0x62a
 1783 0a95 02       		.uleb128 0x2
 1784 0a96 90       		.byte	0x90
 1785 0a97 43       		.uleb128 0x43
 1786 0a98 00       		.byte	0
 1787 0a99 00       		.byte	0
 1788 0a9a 27       		.uleb128 0x27
 1789 0a9b 36060000 		.4byte	0x636
 1790 0a9f 8E000000 		.4byte	.LBB123
 1791 0aa3 0A000000 		.4byte	.LBE123-.LBB123
 1792 0aa7 01       		.byte	0x1
 1793 0aa8 45       		.byte	0x45
 1794 0aa9 E80A0000 		.4byte	0xae8
 1795 0aad 32       		.uleb128 0x32
 1796 0aae 44060000 		.4byte	0x644
 1797 0ab2 CF030000 		.4byte	.LLST27
 1798 0ab6 29       		.uleb128 0x29
 1799 0ab7 17050000 		.4byte	0x517
 1800 0abb 92000000 		.4byte	.LBB125
 1801 0abf 06000000 		.4byte	.LBE125-.LBB125
 1802 0ac3 02       		.byte	0x2
 1803 0ac4 AA       		.byte	0xaa
 1804 0ac5 32       		.uleb128 0x32
 1805 0ac6 34050000 		.4byte	0x534
 1806 0aca E7030000 		.4byte	.LLST28
 1807 0ace 32       		.uleb128 0x32
 1808 0acf 28050000 		.4byte	0x528
 1809 0ad3 FA030000 		.4byte	.LLST29
 1810 0ad7 35       		.uleb128 0x35
 1811 0ad8 92000000 		.4byte	.LBB126
 1812 0adc 06000000 		.4byte	.LBE126-.LBB126
 1813 0ae0 34       		.uleb128 0x34
 1814 0ae1 40050000 		.4byte	0x540
 1815 0ae5 00       		.byte	0
 1816 0ae6 00       		.byte	0
 1817 0ae7 00       		.byte	0
 1818 0ae8 27       		.uleb128 0x27
 1819 0ae9 4E060000 		.4byte	0x64e
 1820 0aed 98000000 		.4byte	.LBB127
 1821 0af1 0C000000 		.4byte	.LBE127-.LBB127
 1822 0af5 01       		.byte	0x1
 1823 0af6 49       		.byte	0x49
ARM GAS  /var/folders/dt/hjs72d_11kddbzhkd4h37c6c0000gn/T//ccCZYdSq.s 			page 33


 1824 0af7 050B0000 		.4byte	0xb05
 1825 0afb 32       		.uleb128 0x32
 1826 0afc 5C060000 		.4byte	0x65c
 1827 0b00 1D040000 		.4byte	.LLST30
 1828 0b04 00       		.byte	0
 1829 0b05 27       		.uleb128 0x27
 1830 0b06 7E060000 		.4byte	0x67e
 1831 0b0a B4000000 		.4byte	.LBB130
 1832 0b0e 2C000000 		.4byte	.LBE130-.LBB130
 1833 0b12 01       		.byte	0x1
 1834 0b13 51       		.byte	0x51
 1835 0b14 590B0000 		.4byte	0xb59
 1836 0b18 32       		.uleb128 0x32
 1837 0b19 8C060000 		.4byte	0x68c
 1838 0b1d 35040000 		.4byte	.LLST31
 1839 0b21 35       		.uleb128 0x35
 1840 0b22 B4000000 		.4byte	.LBB131
 1841 0b26 2C000000 		.4byte	.LBE131-.LBB131
 1842 0b2a 33       		.uleb128 0x33
 1843 0b2b 95060000 		.4byte	0x695
 1844 0b2f 4D040000 		.4byte	.LLST32
 1845 0b33 29       		.uleb128 0x29
 1846 0b34 F0040000 		.4byte	0x4f0
 1847 0b38 C4000000 		.4byte	.LBB132
 1848 0b3c 0C000000 		.4byte	.LBE132-.LBB132
 1849 0b40 02       		.byte	0x2
 1850 0b41 88       		.byte	0x88
 1851 0b42 2A       		.uleb128 0x2a
 1852 0b43 01050000 		.4byte	0x501
 1853 0b47 35       		.uleb128 0x35
 1854 0b48 C4000000 		.4byte	.LBB133
 1855 0b4c 0C000000 		.4byte	.LBE133-.LBB133
 1856 0b50 34       		.uleb128 0x34
 1857 0b51 0B050000 		.4byte	0x50b
 1858 0b55 00       		.byte	0
 1859 0b56 00       		.byte	0
 1860 0b57 00       		.byte	0
 1861 0b58 00       		.byte	0
 1862 0b59 27       		.uleb128 0x27
 1863 0b5a A1060000 		.4byte	0x6a1
 1864 0b5e E2000000 		.4byte	.LBB134
 1865 0b62 18000000 		.4byte	.LBE134-.LBB134
 1866 0b66 01       		.byte	0x1
 1867 0b67 55       		.byte	0x55
 1868 0b68 9E0B0000 		.4byte	0xb9e
 1869 0b6c 32       		.uleb128 0x32
 1870 0b6d AF060000 		.4byte	0x6af
 1871 0b71 76040000 		.4byte	.LLST33
 1872 0b75 29       		.uleb128 0x29
 1873 0b76 F0040000 		.4byte	0x4f0
 1874 0b7a E2000000 		.4byte	.LBB136
 1875 0b7e 18000000 		.4byte	.LBE136-.LBB136
 1876 0b82 02       		.byte	0x2
 1877 0b83 B3       		.byte	0xb3
 1878 0b84 32       		.uleb128 0x32
 1879 0b85 01050000 		.4byte	0x501
 1880 0b89 8E040000 		.4byte	.LLST34
ARM GAS  /var/folders/dt/hjs72d_11kddbzhkd4h37c6c0000gn/T//ccCZYdSq.s 			page 34


 1881 0b8d 35       		.uleb128 0x35
 1882 0b8e E2000000 		.4byte	.LBB137
 1883 0b92 18000000 		.4byte	.LBE137-.LBB137
 1884 0b96 34       		.uleb128 0x34
 1885 0b97 0B050000 		.4byte	0x50b
 1886 0b9b 00       		.byte	0
 1887 0b9c 00       		.byte	0
 1888 0b9d 00       		.byte	0
 1889 0b9e 27       		.uleb128 0x27
 1890 0b9f B9060000 		.4byte	0x6b9
 1891 0ba3 FC000000 		.4byte	.LBB138
 1892 0ba7 12000000 		.4byte	.LBE138-.LBB138
 1893 0bab 01       		.byte	0x1
 1894 0bac 59       		.byte	0x59
 1895 0bad EC0B0000 		.4byte	0xbec
 1896 0bb1 32       		.uleb128 0x32
 1897 0bb2 C7060000 		.4byte	0x6c7
 1898 0bb6 AF040000 		.4byte	.LLST35
 1899 0bba 29       		.uleb128 0x29
 1900 0bbb 4D050000 		.4byte	0x54d
 1901 0bbf FC000000 		.4byte	.LBB140
 1902 0bc3 0A000000 		.4byte	.LBE140-.LBB140
 1903 0bc7 02       		.byte	0x2
 1904 0bc8 DE       		.byte	0xde
 1905 0bc9 32       		.uleb128 0x32
 1906 0bca 6A050000 		.4byte	0x56a
 1907 0bce C7040000 		.4byte	.LLST36
 1908 0bd2 32       		.uleb128 0x32
 1909 0bd3 5E050000 		.4byte	0x55e
 1910 0bd7 DD040000 		.4byte	.LLST37
 1911 0bdb 35       		.uleb128 0x35
 1912 0bdc FC000000 		.4byte	.LBB141
 1913 0be0 0A000000 		.4byte	.LBE141-.LBB141
 1914 0be4 34       		.uleb128 0x34
 1915 0be5 76050000 		.4byte	0x576
 1916 0be9 00       		.byte	0
 1917 0bea 00       		.byte	0
 1918 0beb 00       		.byte	0
 1919 0bec 29       		.uleb128 0x29
 1920 0bed E9060000 		.4byte	0x6e9
 1921 0bf1 1E010000 		.4byte	.LBB143
 1922 0bf5 36000000 		.4byte	.LBE143-.LBB143
 1923 0bf9 01       		.byte	0x1
 1924 0bfa 61       		.byte	0x61
 1925 0bfb 32       		.uleb128 0x32
 1926 0bfc 00070000 		.4byte	0x700
 1927 0c00 0E050000 		.4byte	.LLST38
 1928 0c04 32       		.uleb128 0x32
 1929 0c05 F7060000 		.4byte	0x6f7
 1930 0c09 22050000 		.4byte	.LLST39
 1931 0c0d 35       		.uleb128 0x35
 1932 0c0e 1E010000 		.4byte	.LBB144
 1933 0c12 36000000 		.4byte	.LBE144-.LBB144
 1934 0c16 33       		.uleb128 0x33
 1935 0c17 0B070000 		.4byte	0x70b
 1936 0c1b 3A050000 		.4byte	.LLST40
 1937 0c1f 29       		.uleb128 0x29
ARM GAS  /var/folders/dt/hjs72d_11kddbzhkd4h37c6c0000gn/T//ccCZYdSq.s 			page 35


 1938 0c20 F0040000 		.4byte	0x4f0
 1939 0c24 38010000 		.4byte	.LBB145
 1940 0c28 0C000000 		.4byte	.LBE145-.LBB145
 1941 0c2c 02       		.byte	0x2
 1942 0c2d 94       		.byte	0x94
 1943 0c2e 2A       		.uleb128 0x2a
 1944 0c2f 01050000 		.4byte	0x501
 1945 0c33 35       		.uleb128 0x35
 1946 0c34 38010000 		.4byte	.LBB146
 1947 0c38 0C000000 		.4byte	.LBE146-.LBB146
 1948 0c3c 34       		.uleb128 0x34
 1949 0c3d 0B050000 		.4byte	0x50b
 1950 0c41 00       		.byte	0
 1951 0c42 00       		.byte	0
 1952 0c43 00       		.byte	0
 1953 0c44 00       		.byte	0
 1954 0c45 00       		.byte	0
 1955 0c46 00       		.byte	0
 1956 0c47 24       		.uleb128 0x24
 1957 0c48 28000000 		.4byte	.LASF110
 1958 0c4c 01       		.byte	0x1
 1959 0c4d 7E       		.byte	0x7e
 1960 0c4e 08020000 		.4byte	.LFB253
 1961 0c52 50000000 		.4byte	.LFE253-.LFB253
 1962 0c56 01       		.uleb128 0x1
 1963 0c57 9C       		.byte	0x9c
 1964 0c58 CA0C0000 		.4byte	0xcca
 1965 0c5c 25       		.uleb128 0x25
 1966 0c5d 5D020000 		.4byte	.LASF111
 1967 0c61 01       		.byte	0x1
 1968 0c62 7E       		.byte	0x7e
 1969 0c63 93000000 		.4byte	0x93
 1970 0c67 01       		.uleb128 0x1
 1971 0c68 50       		.byte	0x50
 1972 0c69 25       		.uleb128 0x25
 1973 0c6a EC020000 		.4byte	.LASF112
 1974 0c6e 01       		.byte	0x1
 1975 0c6f 7E       		.byte	0x7e
 1976 0c70 9E000000 		.4byte	0x9e
 1977 0c74 01       		.uleb128 0x1
 1978 0c75 51       		.byte	0x51
 1979 0c76 30       		.uleb128 0x30
 1980 0c77 0D020000 		.4byte	.LASF113
 1981 0c7b 01       		.byte	0x1
 1982 0c7c 80       		.byte	0x80
 1983 0c7d 75010000 		.4byte	0x175
 1984 0c81 4E050000 		.4byte	.LLST41
 1985 0c85 29       		.uleb128 0x29
 1986 0c86 A3070000 		.4byte	0x7a3
 1987 0c8a 22020000 		.4byte	.LBB156
 1988 0c8e 0C000000 		.4byte	.LBE156-.LBB156
 1989 0c92 01       		.byte	0x1
 1990 0c93 83       		.byte	0x83
 1991 0c94 2A       		.uleb128 0x2a
 1992 0c95 B4070000 		.4byte	0x7b4
 1993 0c99 37       		.uleb128 0x37
 1994 0c9a 97040000 		.4byte	0x497
ARM GAS  /var/folders/dt/hjs72d_11kddbzhkd4h37c6c0000gn/T//ccCZYdSq.s 			page 36


 1995 0c9e 22020000 		.4byte	.LBB158
 1996 0ca2 0C000000 		.4byte	.LBE158-.LBB158
 1997 0ca6 03       		.byte	0x3
 1998 0ca7 3801     		.2byte	0x138
 1999 0ca9 2A       		.uleb128 0x2a
 2000 0caa B2040000 		.4byte	0x4b2
 2001 0cae 2A       		.uleb128 0x2a
 2002 0caf A8040000 		.4byte	0x4a8
 2003 0cb3 35       		.uleb128 0x35
 2004 0cb4 22020000 		.4byte	.LBB159
 2005 0cb8 0C000000 		.4byte	.LBE159-.LBB159
 2006 0cbc 34       		.uleb128 0x34
 2007 0cbd BC040000 		.4byte	0x4bc
 2008 0cc1 34       		.uleb128 0x34
 2009 0cc2 C7040000 		.4byte	0x4c7
 2010 0cc6 00       		.byte	0
 2011 0cc7 00       		.byte	0
 2012 0cc8 00       		.byte	0
 2013 0cc9 00       		.byte	0
 2014 0cca 38       		.uleb128 0x38
 2015 0ccb 68050000 		.4byte	.LASF137
 2016 0ccf 00000000 		.4byte	.LFB255
 2017 0cd3 14000000 		.4byte	.LFE255-.LFB255
 2018 0cd7 01       		.uleb128 0x1
 2019 0cd8 9C       		.byte	0x9c
 2020 0cd9 1C0D0000 		.4byte	0xd1c
 2021 0cdd 29       		.uleb128 0x29
 2022 0cde BF070000 		.4byte	0x7bf
 2023 0ce2 00000000 		.4byte	.LBB160
 2024 0ce6 14000000 		.4byte	.LBE160-.LBB160
 2025 0cea 01       		.byte	0x1
 2026 0ceb 8B       		.byte	0x8b
 2027 0cec 32       		.uleb128 0x32
 2028 0ced D4070000 		.4byte	0x7d4
 2029 0cf1 87050000 		.4byte	.LLST42
 2030 0cf5 32       		.uleb128 0x32
 2031 0cf6 C9070000 		.4byte	0x7c9
 2032 0cfa 9D050000 		.4byte	.LLST43
 2033 0cfe 29       		.uleb128 0x29
 2034 0cff D3040000 		.4byte	0x4d3
 2035 0d03 00000000 		.4byte	.LBB161
 2036 0d07 14000000 		.4byte	.LBE161-.LBB161
 2037 0d0b 01       		.byte	0x1
 2038 0d0c 10       		.byte	0x10
 2039 0d0d 28       		.uleb128 0x28
 2040 0d0e E1040000 		.4byte	0x4e1
 2041 0d12 06       		.uleb128 0x6
 2042 0d13 03       		.byte	0x3
 2043 0d14 00000000 		.4byte	_ZL5s_lfo
 2044 0d18 9F       		.byte	0x9f
 2045 0d19 00       		.byte	0
 2046 0d1a 00       		.byte	0
 2047 0d1b 00       		.byte	0
 2048 0d1c 39       		.uleb128 0x39
 2049 0d1d D7030000 		.4byte	.LASF114
 2050 0d21 0A       		.byte	0xa
 2051 0d22 46       		.byte	0x46
ARM GAS  /var/folders/dt/hjs72d_11kddbzhkd4h37c6c0000gn/T//ccCZYdSq.s 			page 37


 2052 0d23 270D0000 		.4byte	0xd27
 2053 0d27 09       		.uleb128 0x9
 2054 0d28 A9000000 		.4byte	0xa9
 2055 0d2c 39       		.uleb128 0x39
 2056 0d2d 8B060000 		.4byte	.LASF115
 2057 0d31 0A       		.byte	0xa
 2058 0d32 4B       		.byte	0x4b
 2059 0d33 270D0000 		.4byte	0xd27
 2060 0d37 3A       		.uleb128 0x3a
 2061 0d38 75010000 		.4byte	0x175
 2062 0d3c 470D0000 		.4byte	0xd47
 2063 0d40 3B       		.uleb128 0x3b
 2064 0d41 C0000000 		.4byte	0xc0
 2065 0d45 80       		.byte	0x80
 2066 0d46 00       		.byte	0
 2067 0d47 39       		.uleb128 0x39
 2068 0d48 44070000 		.4byte	.LASF116
 2069 0d4c 0A       		.byte	0xa
 2070 0d4d 82       		.byte	0x82
 2071 0d4e 520D0000 		.4byte	0xd52
 2072 0d52 09       		.uleb128 0x9
 2073 0d53 370D0000 		.4byte	0xd37
 2074 0d57 3A       		.uleb128 0x3a
 2075 0d58 75010000 		.4byte	0x175
 2076 0d5c 680D0000 		.4byte	0xd68
 2077 0d60 3C       		.uleb128 0x3c
 2078 0d61 C0000000 		.4byte	0xc0
 2079 0d65 0001     		.2byte	0x100
 2080 0d67 00       		.byte	0
 2081 0d68 39       		.uleb128 0x39
 2082 0d69 8C040000 		.4byte	.LASF117
 2083 0d6d 0A       		.byte	0xa
 2084 0d6e C9       		.byte	0xc9
 2085 0d6f 730D0000 		.4byte	0xd73
 2086 0d73 09       		.uleb128 0x9
 2087 0d74 570D0000 		.4byte	0xd57
 2088 0d78 39       		.uleb128 0x39
 2089 0d79 D5010000 		.4byte	.LASF118
 2090 0d7d 0A       		.byte	0xa
 2091 0d7e E0       		.byte	0xe0
 2092 0d7f 830D0000 		.4byte	0xd83
 2093 0d83 09       		.uleb128 0x9
 2094 0d84 570D0000 		.4byte	0xd57
 2095 0d88 39       		.uleb128 0x39
 2096 0d89 43060000 		.4byte	.LASF119
 2097 0d8d 0A       		.byte	0xa
 2098 0d8e F8       		.byte	0xf8
 2099 0d8f 930D0000 		.4byte	0xd93
 2100 0d93 09       		.uleb128 0x9
 2101 0d94 570D0000 		.4byte	0xd57
 2102 0d98 3D       		.uleb128 0x3d
 2103 0d99 BC030000 		.4byte	.LASF120
 2104 0d9d 0A       		.byte	0xa
 2105 0d9e 0F01     		.2byte	0x10f
 2106 0da0 A40D0000 		.4byte	0xda4
 2107 0da4 09       		.uleb128 0x9
 2108 0da5 570D0000 		.4byte	0xd57
ARM GAS  /var/folders/dt/hjs72d_11kddbzhkd4h37c6c0000gn/T//ccCZYdSq.s 			page 38


 2109 0da9 3D       		.uleb128 0x3d
 2110 0daa 53060000 		.4byte	.LASF121
 2111 0dae 0A       		.byte	0xa
 2112 0daf 3E01     		.2byte	0x13e
 2113 0db1 B50D0000 		.4byte	0xdb5
 2114 0db5 09       		.uleb128 0x9
 2115 0db6 370D0000 		.4byte	0xd37
 2116 0dba 3D       		.uleb128 0x3d
 2117 0dbb 38040000 		.4byte	.LASF122
 2118 0dbf 0A       		.byte	0xa
 2119 0dc0 5301     		.2byte	0x153
 2120 0dc2 C60D0000 		.4byte	0xdc6
 2121 0dc6 09       		.uleb128 0x9
 2122 0dc7 370D0000 		.4byte	0xd37
 2123 0dcb 3D       		.uleb128 0x3d
 2124 0dcc A2010000 		.4byte	.LASF123
 2125 0dd0 0A       		.byte	0xa
 2126 0dd1 7001     		.2byte	0x170
 2127 0dd3 D70D0000 		.4byte	0xdd7
 2128 0dd7 09       		.uleb128 0x9
 2129 0dd8 370D0000 		.4byte	0xd37
 2130 0ddc 2D       		.uleb128 0x2d
 2131 0ddd 39020000 		.4byte	.LASF124
 2132 0de1 01       		.byte	0x1
 2133 0de2 10       		.byte	0x10
 2134 0de3 8B010000 		.4byte	0x18b
 2135 0de7 05       		.uleb128 0x5
 2136 0de8 03       		.byte	0x3
 2137 0de9 00000000 		.4byte	_ZL5s_lfo
 2138 0ded 2D       		.uleb128 0x2d
 2139 0dee E2080000 		.4byte	.LASF125
 2140 0df2 01       		.byte	0x1
 2141 0df3 22       		.byte	0x22
 2142 0df4 93000000 		.4byte	0x93
 2143 0df8 05       		.uleb128 0x5
 2144 0df9 03       		.byte	0x3
 2145 0dfa 10000000 		.4byte	_ZL10s_lfo_wave
 2146 0dfe 2D       		.uleb128 0x2d
 2147 0dff 11040000 		.4byte	.LASF126
 2148 0e03 01       		.byte	0x1
 2149 0e04 23       		.byte	0x23
 2150 0e05 25000000 		.4byte	0x25
 2151 0e09 05       		.uleb128 0x5
 2152 0e0a 03       		.byte	0x3
 2153 0e0b 0C000000 		.4byte	_ZL9s_param_z
 2154 0e0f 2D       		.uleb128 0x2d
 2155 0e10 F9060000 		.4byte	.LASF127
 2156 0e14 01       		.byte	0x1
 2157 0e15 23       		.byte	0x23
 2158 0e16 25000000 		.4byte	0x25
 2159 0e1a 05       		.uleb128 0x5
 2160 0e1b 03       		.byte	0x3
 2161 0e1c 08000000 		.4byte	_ZL7s_param
 2162 0e20 3E       		.uleb128 0x3e
 2163 0e21 EF010000 		.4byte	.LASF128
 2164 0e25 01       		.byte	0x1
 2165 0e26 24       		.byte	0x24
ARM GAS  /var/folders/dt/hjs72d_11kddbzhkd4h37c6c0000gn/T//ccCZYdSq.s 			page 39


 2166 0e27 75010000 		.4byte	0x175
 2167 0e2b 04       		.byte	0x4
 2168 0e2c 3EC3AE37 		.4byte	0x37aec33e
 2169 0e30 00       		.byte	0
 2170              		.section	.debug_abbrev,"",%progbits
 2171              	.Ldebug_abbrev0:
 2172 0000 01       		.uleb128 0x1
 2173 0001 11       		.uleb128 0x11
 2174 0002 01       		.byte	0x1
 2175 0003 25       		.uleb128 0x25
 2176 0004 0E       		.uleb128 0xe
 2177 0005 13       		.uleb128 0x13
 2178 0006 0B       		.uleb128 0xb
 2179 0007 03       		.uleb128 0x3
 2180 0008 0E       		.uleb128 0xe
 2181 0009 1B       		.uleb128 0x1b
 2182 000a 0E       		.uleb128 0xe
 2183 000b 55       		.uleb128 0x55
 2184 000c 17       		.uleb128 0x17
 2185 000d 11       		.uleb128 0x11
 2186 000e 01       		.uleb128 0x1
 2187 000f 10       		.uleb128 0x10
 2188 0010 17       		.uleb128 0x17
 2189 0011 00       		.byte	0
 2190 0012 00       		.byte	0
 2191 0013 02       		.uleb128 0x2
 2192 0014 24       		.uleb128 0x24
 2193 0015 00       		.byte	0
 2194 0016 0B       		.uleb128 0xb
 2195 0017 0B       		.uleb128 0xb
 2196 0018 3E       		.uleb128 0x3e
 2197 0019 0B       		.uleb128 0xb
 2198 001a 03       		.uleb128 0x3
 2199 001b 0E       		.uleb128 0xe
 2200 001c 00       		.byte	0
 2201 001d 00       		.byte	0
 2202 001e 03       		.uleb128 0x3
 2203 001f 24       		.uleb128 0x24
 2204 0020 00       		.byte	0
 2205 0021 0B       		.uleb128 0xb
 2206 0022 0B       		.uleb128 0xb
 2207 0023 3E       		.uleb128 0x3e
 2208 0024 0B       		.uleb128 0xb
 2209 0025 03       		.uleb128 0x3
 2210 0026 08       		.uleb128 0x8
 2211 0027 00       		.byte	0
 2212 0028 00       		.byte	0
 2213 0029 04       		.uleb128 0x4
 2214 002a 16       		.uleb128 0x16
 2215 002b 00       		.byte	0
 2216 002c 03       		.uleb128 0x3
 2217 002d 0E       		.uleb128 0xe
 2218 002e 3A       		.uleb128 0x3a
 2219 002f 0B       		.uleb128 0xb
 2220 0030 3B       		.uleb128 0x3b
 2221 0031 0B       		.uleb128 0xb
 2222 0032 49       		.uleb128 0x49
ARM GAS  /var/folders/dt/hjs72d_11kddbzhkd4h37c6c0000gn/T//ccCZYdSq.s 			page 40


 2223 0033 13       		.uleb128 0x13
 2224 0034 00       		.byte	0
 2225 0035 00       		.byte	0
 2226 0036 05       		.uleb128 0x5
 2227 0037 3B       		.uleb128 0x3b
 2228 0038 00       		.byte	0
 2229 0039 03       		.uleb128 0x3
 2230 003a 0E       		.uleb128 0xe
 2231 003b 00       		.byte	0
 2232 003c 00       		.byte	0
 2233 003d 06       		.uleb128 0x6
 2234 003e 17       		.uleb128 0x17
 2235 003f 01       		.byte	0x1
 2236 0040 0B       		.uleb128 0xb
 2237 0041 0B       		.uleb128 0xb
 2238 0042 3A       		.uleb128 0x3a
 2239 0043 0B       		.uleb128 0xb
 2240 0044 3B       		.uleb128 0x3b
 2241 0045 0B       		.uleb128 0xb
 2242 0046 6E       		.uleb128 0x6e
 2243 0047 0E       		.uleb128 0xe
 2244 0048 01       		.uleb128 0x1
 2245 0049 13       		.uleb128 0x13
 2246 004a 00       		.byte	0
 2247 004b 00       		.byte	0
 2248 004c 07       		.uleb128 0x7
 2249 004d 0D       		.uleb128 0xd
 2250 004e 00       		.byte	0
 2251 004f 03       		.uleb128 0x3
 2252 0050 08       		.uleb128 0x8
 2253 0051 3A       		.uleb128 0x3a
 2254 0052 0B       		.uleb128 0xb
 2255 0053 3B       		.uleb128 0x3b
 2256 0054 0B       		.uleb128 0xb
 2257 0055 49       		.uleb128 0x49
 2258 0056 13       		.uleb128 0x13
 2259 0057 00       		.byte	0
 2260 0058 00       		.byte	0
 2261 0059 08       		.uleb128 0x8
 2262 005a 16       		.uleb128 0x16
 2263 005b 00       		.byte	0
 2264 005c 03       		.uleb128 0x3
 2265 005d 0E       		.uleb128 0xe
 2266 005e 3A       		.uleb128 0x3a
 2267 005f 0B       		.uleb128 0xb
 2268 0060 3B       		.uleb128 0x3b
 2269 0061 05       		.uleb128 0x5
 2270 0062 49       		.uleb128 0x49
 2271 0063 13       		.uleb128 0x13
 2272 0064 00       		.byte	0
 2273 0065 00       		.byte	0
 2274 0066 09       		.uleb128 0x9
 2275 0067 26       		.uleb128 0x26
 2276 0068 00       		.byte	0
 2277 0069 49       		.uleb128 0x49
 2278 006a 13       		.uleb128 0x13
 2279 006b 00       		.byte	0
ARM GAS  /var/folders/dt/hjs72d_11kddbzhkd4h37c6c0000gn/T//ccCZYdSq.s 			page 41


 2280 006c 00       		.byte	0
 2281 006d 0A       		.uleb128 0xa
 2282 006e 04       		.uleb128 0x4
 2283 006f 01       		.byte	0x1
 2284 0070 0B       		.uleb128 0xb
 2285 0071 0B       		.uleb128 0xb
 2286 0072 49       		.uleb128 0x49
 2287 0073 13       		.uleb128 0x13
 2288 0074 3A       		.uleb128 0x3a
 2289 0075 0B       		.uleb128 0xb
 2290 0076 3B       		.uleb128 0x3b
 2291 0077 0B       		.uleb128 0xb
 2292 0078 01       		.uleb128 0x1
 2293 0079 13       		.uleb128 0x13
 2294 007a 00       		.byte	0
 2295 007b 00       		.byte	0
 2296 007c 0B       		.uleb128 0xb
 2297 007d 28       		.uleb128 0x28
 2298 007e 00       		.byte	0
 2299 007f 03       		.uleb128 0x3
 2300 0080 0E       		.uleb128 0xe
 2301 0081 1C       		.uleb128 0x1c
 2302 0082 0B       		.uleb128 0xb
 2303 0083 00       		.byte	0
 2304 0084 00       		.byte	0
 2305 0085 0C       		.uleb128 0xc
 2306 0086 04       		.uleb128 0x4
 2307 0087 01       		.byte	0x1
 2308 0088 0B       		.uleb128 0xb
 2309 0089 0B       		.uleb128 0xb
 2310 008a 49       		.uleb128 0x49
 2311 008b 13       		.uleb128 0x13
 2312 008c 3A       		.uleb128 0x3a
 2313 008d 0B       		.uleb128 0xb
 2314 008e 3B       		.uleb128 0x3b
 2315 008f 0B       		.uleb128 0xb
 2316 0090 6E       		.uleb128 0x6e
 2317 0091 0E       		.uleb128 0xe
 2318 0092 01       		.uleb128 0x1
 2319 0093 13       		.uleb128 0x13
 2320 0094 00       		.byte	0
 2321 0095 00       		.byte	0
 2322 0096 0D       		.uleb128 0xd
 2323 0097 0F       		.uleb128 0xf
 2324 0098 00       		.byte	0
 2325 0099 0B       		.uleb128 0xb
 2326 009a 0B       		.uleb128 0xb
 2327 009b 49       		.uleb128 0x49
 2328 009c 13       		.uleb128 0x13
 2329 009d 00       		.byte	0
 2330 009e 00       		.byte	0
 2331 009f 0E       		.uleb128 0xe
 2332 00a0 39       		.uleb128 0x39
 2333 00a1 01       		.byte	0x1
 2334 00a2 03       		.uleb128 0x3
 2335 00a3 08       		.uleb128 0x8
 2336 00a4 3A       		.uleb128 0x3a
ARM GAS  /var/folders/dt/hjs72d_11kddbzhkd4h37c6c0000gn/T//ccCZYdSq.s 			page 42


 2337 00a5 0B       		.uleb128 0xb
 2338 00a6 3B       		.uleb128 0x3b
 2339 00a7 0B       		.uleb128 0xb
 2340 00a8 01       		.uleb128 0x1
 2341 00a9 13       		.uleb128 0x13
 2342 00aa 00       		.byte	0
 2343 00ab 00       		.byte	0
 2344 00ac 0F       		.uleb128 0xf
 2345 00ad 13       		.uleb128 0x13
 2346 00ae 01       		.byte	0x1
 2347 00af 03       		.uleb128 0x3
 2348 00b0 0E       		.uleb128 0xe
 2349 00b1 0B       		.uleb128 0xb
 2350 00b2 0B       		.uleb128 0xb
 2351 00b3 3A       		.uleb128 0x3a
 2352 00b4 0B       		.uleb128 0xb
 2353 00b5 3B       		.uleb128 0x3b
 2354 00b6 0B       		.uleb128 0xb
 2355 00b7 00       		.byte	0
 2356 00b8 00       		.byte	0
 2357 00b9 10       		.uleb128 0x10
 2358 00ba 0D       		.uleb128 0xd
 2359 00bb 00       		.byte	0
 2360 00bc 03       		.uleb128 0x3
 2361 00bd 0E       		.uleb128 0xe
 2362 00be 3A       		.uleb128 0x3a
 2363 00bf 0B       		.uleb128 0xb
 2364 00c0 3B       		.uleb128 0x3b
 2365 00c1 05       		.uleb128 0x5
 2366 00c2 49       		.uleb128 0x49
 2367 00c3 13       		.uleb128 0x13
 2368 00c4 38       		.uleb128 0x38
 2369 00c5 0B       		.uleb128 0xb
 2370 00c6 00       		.byte	0
 2371 00c7 00       		.byte	0
 2372 00c8 11       		.uleb128 0x11
 2373 00c9 0D       		.uleb128 0xd
 2374 00ca 00       		.byte	0
 2375 00cb 03       		.uleb128 0x3
 2376 00cc 08       		.uleb128 0x8
 2377 00cd 3A       		.uleb128 0x3a
 2378 00ce 0B       		.uleb128 0xb
 2379 00cf 3B       		.uleb128 0x3b
 2380 00d0 05       		.uleb128 0x5
 2381 00d1 49       		.uleb128 0x49
 2382 00d2 13       		.uleb128 0x13
 2383 00d3 38       		.uleb128 0x38
 2384 00d4 0B       		.uleb128 0xb
 2385 00d5 00       		.byte	0
 2386 00d6 00       		.byte	0
 2387 00d7 12       		.uleb128 0x12
 2388 00d8 2E       		.uleb128 0x2e
 2389 00d9 01       		.byte	0x1
 2390 00da 3F       		.uleb128 0x3f
 2391 00db 19       		.uleb128 0x19
 2392 00dc 03       		.uleb128 0x3
 2393 00dd 0E       		.uleb128 0xe
ARM GAS  /var/folders/dt/hjs72d_11kddbzhkd4h37c6c0000gn/T//ccCZYdSq.s 			page 43


 2394 00de 3A       		.uleb128 0x3a
 2395 00df 0B       		.uleb128 0xb
 2396 00e0 3B       		.uleb128 0x3b
 2397 00e1 0B       		.uleb128 0xb
 2398 00e2 6E       		.uleb128 0x6e
 2399 00e3 0E       		.uleb128 0xe
 2400 00e4 49       		.uleb128 0x49
 2401 00e5 13       		.uleb128 0x13
 2402 00e6 3C       		.uleb128 0x3c
 2403 00e7 19       		.uleb128 0x19
 2404 00e8 64       		.uleb128 0x64
 2405 00e9 13       		.uleb128 0x13
 2406 00ea 01       		.uleb128 0x1
 2407 00eb 13       		.uleb128 0x13
 2408 00ec 00       		.byte	0
 2409 00ed 00       		.byte	0
 2410 00ee 13       		.uleb128 0x13
 2411 00ef 05       		.uleb128 0x5
 2412 00f0 00       		.byte	0
 2413 00f1 49       		.uleb128 0x49
 2414 00f2 13       		.uleb128 0x13
 2415 00f3 34       		.uleb128 0x34
 2416 00f4 19       		.uleb128 0x19
 2417 00f5 00       		.byte	0
 2418 00f6 00       		.byte	0
 2419 00f7 14       		.uleb128 0x14
 2420 00f8 2E       		.uleb128 0x2e
 2421 00f9 01       		.byte	0x1
 2422 00fa 3F       		.uleb128 0x3f
 2423 00fb 19       		.uleb128 0x19
 2424 00fc 03       		.uleb128 0x3
 2425 00fd 0E       		.uleb128 0xe
 2426 00fe 3A       		.uleb128 0x3a
 2427 00ff 0B       		.uleb128 0xb
 2428 0100 3B       		.uleb128 0x3b
 2429 0101 0B       		.uleb128 0xb
 2430 0102 6E       		.uleb128 0x6e
 2431 0103 0E       		.uleb128 0xe
 2432 0104 3C       		.uleb128 0x3c
 2433 0105 19       		.uleb128 0x19
 2434 0106 64       		.uleb128 0x64
 2435 0107 13       		.uleb128 0x13
 2436 0108 01       		.uleb128 0x1
 2437 0109 13       		.uleb128 0x13
 2438 010a 00       		.byte	0
 2439 010b 00       		.byte	0
 2440 010c 15       		.uleb128 0x15
 2441 010d 05       		.uleb128 0x5
 2442 010e 00       		.byte	0
 2443 010f 49       		.uleb128 0x49
 2444 0110 13       		.uleb128 0x13
 2445 0111 00       		.byte	0
 2446 0112 00       		.byte	0
 2447 0113 16       		.uleb128 0x16
 2448 0114 2E       		.uleb128 0x2e
 2449 0115 01       		.byte	0x1
 2450 0116 3F       		.uleb128 0x3f
ARM GAS  /var/folders/dt/hjs72d_11kddbzhkd4h37c6c0000gn/T//ccCZYdSq.s 			page 44


 2451 0117 19       		.uleb128 0x19
 2452 0118 03       		.uleb128 0x3
 2453 0119 0E       		.uleb128 0xe
 2454 011a 3A       		.uleb128 0x3a
 2455 011b 0B       		.uleb128 0xb
 2456 011c 3B       		.uleb128 0x3b
 2457 011d 05       		.uleb128 0x5
 2458 011e 6E       		.uleb128 0x6e
 2459 011f 0E       		.uleb128 0xe
 2460 0120 49       		.uleb128 0x49
 2461 0121 13       		.uleb128 0x13
 2462 0122 3C       		.uleb128 0x3c
 2463 0123 19       		.uleb128 0x19
 2464 0124 64       		.uleb128 0x64
 2465 0125 13       		.uleb128 0x13
 2466 0126 01       		.uleb128 0x1
 2467 0127 13       		.uleb128 0x13
 2468 0128 00       		.byte	0
 2469 0129 00       		.byte	0
 2470 012a 17       		.uleb128 0x17
 2471 012b 2E       		.uleb128 0x2e
 2472 012c 01       		.byte	0x1
 2473 012d 3F       		.uleb128 0x3f
 2474 012e 19       		.uleb128 0x19
 2475 012f 03       		.uleb128 0x3
 2476 0130 0E       		.uleb128 0xe
 2477 0131 3A       		.uleb128 0x3a
 2478 0132 0B       		.uleb128 0xb
 2479 0133 3B       		.uleb128 0x3b
 2480 0134 05       		.uleb128 0x5
 2481 0135 6E       		.uleb128 0x6e
 2482 0136 0E       		.uleb128 0xe
 2483 0137 49       		.uleb128 0x49
 2484 0138 13       		.uleb128 0x13
 2485 0139 3C       		.uleb128 0x3c
 2486 013a 19       		.uleb128 0x19
 2487 013b 64       		.uleb128 0x64
 2488 013c 13       		.uleb128 0x13
 2489 013d 00       		.byte	0
 2490 013e 00       		.byte	0
 2491 013f 18       		.uleb128 0x18
 2492 0140 2E       		.uleb128 0x2e
 2493 0141 01       		.byte	0x1
 2494 0142 03       		.uleb128 0x3
 2495 0143 0E       		.uleb128 0xe
 2496 0144 3A       		.uleb128 0x3a
 2497 0145 0B       		.uleb128 0xb
 2498 0146 3B       		.uleb128 0x3b
 2499 0147 05       		.uleb128 0x5
 2500 0148 49       		.uleb128 0x49
 2501 0149 13       		.uleb128 0x13
 2502 014a 20       		.uleb128 0x20
 2503 014b 0B       		.uleb128 0xb
 2504 014c 01       		.uleb128 0x1
 2505 014d 13       		.uleb128 0x13
 2506 014e 00       		.byte	0
 2507 014f 00       		.byte	0
ARM GAS  /var/folders/dt/hjs72d_11kddbzhkd4h37c6c0000gn/T//ccCZYdSq.s 			page 45


 2508 0150 19       		.uleb128 0x19
 2509 0151 05       		.uleb128 0x5
 2510 0152 00       		.byte	0
 2511 0153 03       		.uleb128 0x3
 2512 0154 08       		.uleb128 0x8
 2513 0155 3A       		.uleb128 0x3a
 2514 0156 0B       		.uleb128 0xb
 2515 0157 3B       		.uleb128 0x3b
 2516 0158 05       		.uleb128 0x5
 2517 0159 49       		.uleb128 0x49
 2518 015a 13       		.uleb128 0x13
 2519 015b 00       		.byte	0
 2520 015c 00       		.byte	0
 2521 015d 1A       		.uleb128 0x1a
 2522 015e 34       		.uleb128 0x34
 2523 015f 00       		.byte	0
 2524 0160 03       		.uleb128 0x3
 2525 0161 08       		.uleb128 0x8
 2526 0162 3A       		.uleb128 0x3a
 2527 0163 0B       		.uleb128 0xb
 2528 0164 3B       		.uleb128 0x3b
 2529 0165 05       		.uleb128 0x5
 2530 0166 49       		.uleb128 0x49
 2531 0167 13       		.uleb128 0x13
 2532 0168 00       		.byte	0
 2533 0169 00       		.byte	0
 2534 016a 1B       		.uleb128 0x1b
 2535 016b 2E       		.uleb128 0x2e
 2536 016c 01       		.byte	0x1
 2537 016d 47       		.uleb128 0x47
 2538 016e 13       		.uleb128 0x13
 2539 016f 20       		.uleb128 0x20
 2540 0170 0B       		.uleb128 0xb
 2541 0171 64       		.uleb128 0x64
 2542 0172 13       		.uleb128 0x13
 2543 0173 01       		.uleb128 0x1
 2544 0174 13       		.uleb128 0x13
 2545 0175 00       		.byte	0
 2546 0176 00       		.byte	0
 2547 0177 1C       		.uleb128 0x1c
 2548 0178 05       		.uleb128 0x5
 2549 0179 00       		.byte	0
 2550 017a 03       		.uleb128 0x3
 2551 017b 0E       		.uleb128 0xe
 2552 017c 49       		.uleb128 0x49
 2553 017d 13       		.uleb128 0x13
 2554 017e 34       		.uleb128 0x34
 2555 017f 19       		.uleb128 0x19
 2556 0180 00       		.byte	0
 2557 0181 00       		.byte	0
 2558 0182 1D       		.uleb128 0x1d
 2559 0183 34       		.uleb128 0x34
 2560 0184 00       		.byte	0
 2561 0185 03       		.uleb128 0x3
 2562 0186 0E       		.uleb128 0xe
 2563 0187 3A       		.uleb128 0x3a
 2564 0188 0B       		.uleb128 0xb
ARM GAS  /var/folders/dt/hjs72d_11kddbzhkd4h37c6c0000gn/T//ccCZYdSq.s 			page 46


 2565 0189 3B       		.uleb128 0x3b
 2566 018a 05       		.uleb128 0x5
 2567 018b 49       		.uleb128 0x49
 2568 018c 13       		.uleb128 0x13
 2569 018d 00       		.byte	0
 2570 018e 00       		.byte	0
 2571 018f 1E       		.uleb128 0x1e
 2572 0190 05       		.uleb128 0x5
 2573 0191 00       		.byte	0
 2574 0192 03       		.uleb128 0x3
 2575 0193 08       		.uleb128 0x8
 2576 0194 3A       		.uleb128 0x3a
 2577 0195 0B       		.uleb128 0xb
 2578 0196 3B       		.uleb128 0x3b
 2579 0197 0B       		.uleb128 0xb
 2580 0198 49       		.uleb128 0x49
 2581 0199 13       		.uleb128 0x13
 2582 019a 00       		.byte	0
 2583 019b 00       		.byte	0
 2584 019c 1F       		.uleb128 0x1f
 2585 019d 05       		.uleb128 0x5
 2586 019e 00       		.byte	0
 2587 019f 03       		.uleb128 0x3
 2588 01a0 0E       		.uleb128 0xe
 2589 01a1 3A       		.uleb128 0x3a
 2590 01a2 0B       		.uleb128 0xb
 2591 01a3 3B       		.uleb128 0x3b
 2592 01a4 0B       		.uleb128 0xb
 2593 01a5 49       		.uleb128 0x49
 2594 01a6 13       		.uleb128 0x13
 2595 01a7 00       		.byte	0
 2596 01a8 00       		.byte	0
 2597 01a9 20       		.uleb128 0x20
 2598 01aa 34       		.uleb128 0x34
 2599 01ab 00       		.byte	0
 2600 01ac 03       		.uleb128 0x3
 2601 01ad 0E       		.uleb128 0xe
 2602 01ae 3A       		.uleb128 0x3a
 2603 01af 0B       		.uleb128 0xb
 2604 01b0 3B       		.uleb128 0x3b
 2605 01b1 0B       		.uleb128 0xb
 2606 01b2 49       		.uleb128 0x49
 2607 01b3 13       		.uleb128 0x13
 2608 01b4 00       		.byte	0
 2609 01b5 00       		.byte	0
 2610 01b6 21       		.uleb128 0x21
 2611 01b7 34       		.uleb128 0x34
 2612 01b8 00       		.byte	0
 2613 01b9 03       		.uleb128 0x3
 2614 01ba 08       		.uleb128 0x8
 2615 01bb 3A       		.uleb128 0x3a
 2616 01bc 0B       		.uleb128 0xb
 2617 01bd 3B       		.uleb128 0x3b
 2618 01be 0B       		.uleb128 0xb
 2619 01bf 49       		.uleb128 0x49
 2620 01c0 13       		.uleb128 0x13
 2621 01c1 00       		.byte	0
ARM GAS  /var/folders/dt/hjs72d_11kddbzhkd4h37c6c0000gn/T//ccCZYdSq.s 			page 47


 2622 01c2 00       		.byte	0
 2623 01c3 22       		.uleb128 0x22
 2624 01c4 05       		.uleb128 0x5
 2625 01c5 00       		.byte	0
 2626 01c6 03       		.uleb128 0x3
 2627 01c7 0E       		.uleb128 0xe
 2628 01c8 3A       		.uleb128 0x3a
 2629 01c9 0B       		.uleb128 0xb
 2630 01ca 3B       		.uleb128 0x3b
 2631 01cb 05       		.uleb128 0x5
 2632 01cc 49       		.uleb128 0x49
 2633 01cd 13       		.uleb128 0x13
 2634 01ce 00       		.byte	0
 2635 01cf 00       		.byte	0
 2636 01d0 23       		.uleb128 0x23
 2637 01d1 2E       		.uleb128 0x2e
 2638 01d2 01       		.byte	0x1
 2639 01d3 03       		.uleb128 0x3
 2640 01d4 0E       		.uleb128 0xe
 2641 01d5 34       		.uleb128 0x34
 2642 01d6 19       		.uleb128 0x19
 2643 01d7 20       		.uleb128 0x20
 2644 01d8 0B       		.uleb128 0xb
 2645 01d9 01       		.uleb128 0x1
 2646 01da 13       		.uleb128 0x13
 2647 01db 00       		.byte	0
 2648 01dc 00       		.byte	0
 2649 01dd 24       		.uleb128 0x24
 2650 01de 2E       		.uleb128 0x2e
 2651 01df 01       		.byte	0x1
 2652 01e0 3F       		.uleb128 0x3f
 2653 01e1 19       		.uleb128 0x19
 2654 01e2 03       		.uleb128 0x3
 2655 01e3 0E       		.uleb128 0xe
 2656 01e4 3A       		.uleb128 0x3a
 2657 01e5 0B       		.uleb128 0xb
 2658 01e6 3B       		.uleb128 0x3b
 2659 01e7 0B       		.uleb128 0xb
 2660 01e8 11       		.uleb128 0x11
 2661 01e9 01       		.uleb128 0x1
 2662 01ea 12       		.uleb128 0x12
 2663 01eb 06       		.uleb128 0x6
 2664 01ec 40       		.uleb128 0x40
 2665 01ed 18       		.uleb128 0x18
 2666 01ee 9742     		.uleb128 0x2117
 2667 01f0 19       		.uleb128 0x19
 2668 01f1 01       		.uleb128 0x1
 2669 01f2 13       		.uleb128 0x13
 2670 01f3 00       		.byte	0
 2671 01f4 00       		.byte	0
 2672 01f5 25       		.uleb128 0x25
 2673 01f6 05       		.uleb128 0x5
 2674 01f7 00       		.byte	0
 2675 01f8 03       		.uleb128 0x3
 2676 01f9 0E       		.uleb128 0xe
 2677 01fa 3A       		.uleb128 0x3a
 2678 01fb 0B       		.uleb128 0xb
ARM GAS  /var/folders/dt/hjs72d_11kddbzhkd4h37c6c0000gn/T//ccCZYdSq.s 			page 48


 2679 01fc 3B       		.uleb128 0x3b
 2680 01fd 0B       		.uleb128 0xb
 2681 01fe 49       		.uleb128 0x49
 2682 01ff 13       		.uleb128 0x13
 2683 0200 02       		.uleb128 0x2
 2684 0201 18       		.uleb128 0x18
 2685 0202 00       		.byte	0
 2686 0203 00       		.byte	0
 2687 0204 26       		.uleb128 0x26
 2688 0205 05       		.uleb128 0x5
 2689 0206 00       		.byte	0
 2690 0207 03       		.uleb128 0x3
 2691 0208 08       		.uleb128 0x8
 2692 0209 3A       		.uleb128 0x3a
 2693 020a 0B       		.uleb128 0xb
 2694 020b 3B       		.uleb128 0x3b
 2695 020c 0B       		.uleb128 0xb
 2696 020d 49       		.uleb128 0x49
 2697 020e 13       		.uleb128 0x13
 2698 020f 02       		.uleb128 0x2
 2699 0210 17       		.uleb128 0x17
 2700 0211 00       		.byte	0
 2701 0212 00       		.byte	0
 2702 0213 27       		.uleb128 0x27
 2703 0214 1D       		.uleb128 0x1d
 2704 0215 01       		.byte	0x1
 2705 0216 31       		.uleb128 0x31
 2706 0217 13       		.uleb128 0x13
 2707 0218 11       		.uleb128 0x11
 2708 0219 01       		.uleb128 0x1
 2709 021a 12       		.uleb128 0x12
 2710 021b 06       		.uleb128 0x6
 2711 021c 58       		.uleb128 0x58
 2712 021d 0B       		.uleb128 0xb
 2713 021e 59       		.uleb128 0x59
 2714 021f 0B       		.uleb128 0xb
 2715 0220 01       		.uleb128 0x1
 2716 0221 13       		.uleb128 0x13
 2717 0222 00       		.byte	0
 2718 0223 00       		.byte	0
 2719 0224 28       		.uleb128 0x28
 2720 0225 05       		.uleb128 0x5
 2721 0226 00       		.byte	0
 2722 0227 31       		.uleb128 0x31
 2723 0228 13       		.uleb128 0x13
 2724 0229 02       		.uleb128 0x2
 2725 022a 18       		.uleb128 0x18
 2726 022b 00       		.byte	0
 2727 022c 00       		.byte	0
 2728 022d 29       		.uleb128 0x29
 2729 022e 1D       		.uleb128 0x1d
 2730 022f 01       		.byte	0x1
 2731 0230 31       		.uleb128 0x31
 2732 0231 13       		.uleb128 0x13
 2733 0232 11       		.uleb128 0x11
 2734 0233 01       		.uleb128 0x1
 2735 0234 12       		.uleb128 0x12
ARM GAS  /var/folders/dt/hjs72d_11kddbzhkd4h37c6c0000gn/T//ccCZYdSq.s 			page 49


 2736 0235 06       		.uleb128 0x6
 2737 0236 58       		.uleb128 0x58
 2738 0237 0B       		.uleb128 0xb
 2739 0238 59       		.uleb128 0x59
 2740 0239 0B       		.uleb128 0xb
 2741 023a 00       		.byte	0
 2742 023b 00       		.byte	0
 2743 023c 2A       		.uleb128 0x2a
 2744 023d 05       		.uleb128 0x5
 2745 023e 00       		.byte	0
 2746 023f 31       		.uleb128 0x31
 2747 0240 13       		.uleb128 0x13
 2748 0241 00       		.byte	0
 2749 0242 00       		.byte	0
 2750 0243 2B       		.uleb128 0x2b
 2751 0244 05       		.uleb128 0x5
 2752 0245 00       		.byte	0
 2753 0246 03       		.uleb128 0x3
 2754 0247 0E       		.uleb128 0xe
 2755 0248 3A       		.uleb128 0x3a
 2756 0249 0B       		.uleb128 0xb
 2757 024a 3B       		.uleb128 0x3b
 2758 024b 0B       		.uleb128 0xb
 2759 024c 49       		.uleb128 0x49
 2760 024d 13       		.uleb128 0x13
 2761 024e 02       		.uleb128 0x2
 2762 024f 17       		.uleb128 0x17
 2763 0250 00       		.byte	0
 2764 0251 00       		.byte	0
 2765 0252 2C       		.uleb128 0x2c
 2766 0253 34       		.uleb128 0x34
 2767 0254 00       		.byte	0
 2768 0255 03       		.uleb128 0x3
 2769 0256 08       		.uleb128 0x8
 2770 0257 3A       		.uleb128 0x3a
 2771 0258 0B       		.uleb128 0xb
 2772 0259 3B       		.uleb128 0x3b
 2773 025a 0B       		.uleb128 0xb
 2774 025b 49       		.uleb128 0x49
 2775 025c 13       		.uleb128 0x13
 2776 025d 02       		.uleb128 0x2
 2777 025e 17       		.uleb128 0x17
 2778 025f 00       		.byte	0
 2779 0260 00       		.byte	0
 2780 0261 2D       		.uleb128 0x2d
 2781 0262 34       		.uleb128 0x34
 2782 0263 00       		.byte	0
 2783 0264 03       		.uleb128 0x3
 2784 0265 0E       		.uleb128 0xe
 2785 0266 3A       		.uleb128 0x3a
 2786 0267 0B       		.uleb128 0xb
 2787 0268 3B       		.uleb128 0x3b
 2788 0269 0B       		.uleb128 0xb
 2789 026a 49       		.uleb128 0x49
 2790 026b 13       		.uleb128 0x13
 2791 026c 02       		.uleb128 0x2
 2792 026d 18       		.uleb128 0x18
ARM GAS  /var/folders/dt/hjs72d_11kddbzhkd4h37c6c0000gn/T//ccCZYdSq.s 			page 50


 2793 026e 00       		.byte	0
 2794 026f 00       		.byte	0
 2795 0270 2E       		.uleb128 0x2e
 2796 0271 34       		.uleb128 0x34
 2797 0272 00       		.byte	0
 2798 0273 03       		.uleb128 0x3
 2799 0274 08       		.uleb128 0x8
 2800 0275 3A       		.uleb128 0x3a
 2801 0276 0B       		.uleb128 0xb
 2802 0277 3B       		.uleb128 0x3b
 2803 0278 0B       		.uleb128 0xb
 2804 0279 49       		.uleb128 0x49
 2805 027a 13       		.uleb128 0x13
 2806 027b 02       		.uleb128 0x2
 2807 027c 18       		.uleb128 0x18
 2808 027d 00       		.byte	0
 2809 027e 00       		.byte	0
 2810 027f 2F       		.uleb128 0x2f
 2811 0280 0B       		.uleb128 0xb
 2812 0281 01       		.byte	0x1
 2813 0282 55       		.uleb128 0x55
 2814 0283 17       		.uleb128 0x17
 2815 0284 00       		.byte	0
 2816 0285 00       		.byte	0
 2817 0286 30       		.uleb128 0x30
 2818 0287 34       		.uleb128 0x34
 2819 0288 00       		.byte	0
 2820 0289 03       		.uleb128 0x3
 2821 028a 0E       		.uleb128 0xe
 2822 028b 3A       		.uleb128 0x3a
 2823 028c 0B       		.uleb128 0xb
 2824 028d 3B       		.uleb128 0x3b
 2825 028e 0B       		.uleb128 0xb
 2826 028f 49       		.uleb128 0x49
 2827 0290 13       		.uleb128 0x13
 2828 0291 02       		.uleb128 0x2
 2829 0292 17       		.uleb128 0x17
 2830 0293 00       		.byte	0
 2831 0294 00       		.byte	0
 2832 0295 31       		.uleb128 0x31
 2833 0296 1D       		.uleb128 0x1d
 2834 0297 01       		.byte	0x1
 2835 0298 31       		.uleb128 0x31
 2836 0299 13       		.uleb128 0x13
 2837 029a 52       		.uleb128 0x52
 2838 029b 01       		.uleb128 0x1
 2839 029c 55       		.uleb128 0x55
 2840 029d 17       		.uleb128 0x17
 2841 029e 58       		.uleb128 0x58
 2842 029f 0B       		.uleb128 0xb
 2843 02a0 59       		.uleb128 0x59
 2844 02a1 0B       		.uleb128 0xb
 2845 02a2 01       		.uleb128 0x1
 2846 02a3 13       		.uleb128 0x13
 2847 02a4 00       		.byte	0
 2848 02a5 00       		.byte	0
 2849 02a6 32       		.uleb128 0x32
ARM GAS  /var/folders/dt/hjs72d_11kddbzhkd4h37c6c0000gn/T//ccCZYdSq.s 			page 51


 2850 02a7 05       		.uleb128 0x5
 2851 02a8 00       		.byte	0
 2852 02a9 31       		.uleb128 0x31
 2853 02aa 13       		.uleb128 0x13
 2854 02ab 02       		.uleb128 0x2
 2855 02ac 17       		.uleb128 0x17
 2856 02ad 00       		.byte	0
 2857 02ae 00       		.byte	0
 2858 02af 33       		.uleb128 0x33
 2859 02b0 34       		.uleb128 0x34
 2860 02b1 00       		.byte	0
 2861 02b2 31       		.uleb128 0x31
 2862 02b3 13       		.uleb128 0x13
 2863 02b4 02       		.uleb128 0x2
 2864 02b5 17       		.uleb128 0x17
 2865 02b6 00       		.byte	0
 2866 02b7 00       		.byte	0
 2867 02b8 34       		.uleb128 0x34
 2868 02b9 34       		.uleb128 0x34
 2869 02ba 00       		.byte	0
 2870 02bb 31       		.uleb128 0x31
 2871 02bc 13       		.uleb128 0x13
 2872 02bd 00       		.byte	0
 2873 02be 00       		.byte	0
 2874 02bf 35       		.uleb128 0x35
 2875 02c0 0B       		.uleb128 0xb
 2876 02c1 01       		.byte	0x1
 2877 02c2 11       		.uleb128 0x11
 2878 02c3 01       		.uleb128 0x1
 2879 02c4 12       		.uleb128 0x12
 2880 02c5 06       		.uleb128 0x6
 2881 02c6 00       		.byte	0
 2882 02c7 00       		.byte	0
 2883 02c8 36       		.uleb128 0x36
 2884 02c9 34       		.uleb128 0x34
 2885 02ca 00       		.byte	0
 2886 02cb 31       		.uleb128 0x31
 2887 02cc 13       		.uleb128 0x13
 2888 02cd 02       		.uleb128 0x2
 2889 02ce 18       		.uleb128 0x18
 2890 02cf 00       		.byte	0
 2891 02d0 00       		.byte	0
 2892 02d1 37       		.uleb128 0x37
 2893 02d2 1D       		.uleb128 0x1d
 2894 02d3 01       		.byte	0x1
 2895 02d4 31       		.uleb128 0x31
 2896 02d5 13       		.uleb128 0x13
 2897 02d6 11       		.uleb128 0x11
 2898 02d7 01       		.uleb128 0x1
 2899 02d8 12       		.uleb128 0x12
 2900 02d9 06       		.uleb128 0x6
 2901 02da 58       		.uleb128 0x58
 2902 02db 0B       		.uleb128 0xb
 2903 02dc 59       		.uleb128 0x59
 2904 02dd 05       		.uleb128 0x5
 2905 02de 00       		.byte	0
 2906 02df 00       		.byte	0
ARM GAS  /var/folders/dt/hjs72d_11kddbzhkd4h37c6c0000gn/T//ccCZYdSq.s 			page 52


 2907 02e0 38       		.uleb128 0x38
 2908 02e1 2E       		.uleb128 0x2e
 2909 02e2 01       		.byte	0x1
 2910 02e3 03       		.uleb128 0x3
 2911 02e4 0E       		.uleb128 0xe
 2912 02e5 34       		.uleb128 0x34
 2913 02e6 19       		.uleb128 0x19
 2914 02e7 11       		.uleb128 0x11
 2915 02e8 01       		.uleb128 0x1
 2916 02e9 12       		.uleb128 0x12
 2917 02ea 06       		.uleb128 0x6
 2918 02eb 40       		.uleb128 0x40
 2919 02ec 18       		.uleb128 0x18
 2920 02ed 9742     		.uleb128 0x2117
 2921 02ef 19       		.uleb128 0x19
 2922 02f0 01       		.uleb128 0x1
 2923 02f1 13       		.uleb128 0x13
 2924 02f2 00       		.byte	0
 2925 02f3 00       		.byte	0
 2926 02f4 39       		.uleb128 0x39
 2927 02f5 34       		.uleb128 0x34
 2928 02f6 00       		.byte	0
 2929 02f7 03       		.uleb128 0x3
 2930 02f8 0E       		.uleb128 0xe
 2931 02f9 3A       		.uleb128 0x3a
 2932 02fa 0B       		.uleb128 0xb
 2933 02fb 3B       		.uleb128 0x3b
 2934 02fc 0B       		.uleb128 0xb
 2935 02fd 49       		.uleb128 0x49
 2936 02fe 13       		.uleb128 0x13
 2937 02ff 3F       		.uleb128 0x3f
 2938 0300 19       		.uleb128 0x19
 2939 0301 3C       		.uleb128 0x3c
 2940 0302 19       		.uleb128 0x19
 2941 0303 00       		.byte	0
 2942 0304 00       		.byte	0
 2943 0305 3A       		.uleb128 0x3a
 2944 0306 01       		.uleb128 0x1
 2945 0307 01       		.byte	0x1
 2946 0308 49       		.uleb128 0x49
 2947 0309 13       		.uleb128 0x13
 2948 030a 01       		.uleb128 0x1
 2949 030b 13       		.uleb128 0x13
 2950 030c 00       		.byte	0
 2951 030d 00       		.byte	0
 2952 030e 3B       		.uleb128 0x3b
 2953 030f 21       		.uleb128 0x21
 2954 0310 00       		.byte	0
 2955 0311 49       		.uleb128 0x49
 2956 0312 13       		.uleb128 0x13
 2957 0313 2F       		.uleb128 0x2f
 2958 0314 0B       		.uleb128 0xb
 2959 0315 00       		.byte	0
 2960 0316 00       		.byte	0
 2961 0317 3C       		.uleb128 0x3c
 2962 0318 21       		.uleb128 0x21
 2963 0319 00       		.byte	0
ARM GAS  /var/folders/dt/hjs72d_11kddbzhkd4h37c6c0000gn/T//ccCZYdSq.s 			page 53


 2964 031a 49       		.uleb128 0x49
 2965 031b 13       		.uleb128 0x13
 2966 031c 2F       		.uleb128 0x2f
 2967 031d 05       		.uleb128 0x5
 2968 031e 00       		.byte	0
 2969 031f 00       		.byte	0
 2970 0320 3D       		.uleb128 0x3d
 2971 0321 34       		.uleb128 0x34
 2972 0322 00       		.byte	0
 2973 0323 03       		.uleb128 0x3
 2974 0324 0E       		.uleb128 0xe
 2975 0325 3A       		.uleb128 0x3a
 2976 0326 0B       		.uleb128 0xb
 2977 0327 3B       		.uleb128 0x3b
 2978 0328 05       		.uleb128 0x5
 2979 0329 49       		.uleb128 0x49
 2980 032a 13       		.uleb128 0x13
 2981 032b 3F       		.uleb128 0x3f
 2982 032c 19       		.uleb128 0x19
 2983 032d 3C       		.uleb128 0x3c
 2984 032e 19       		.uleb128 0x19
 2985 032f 00       		.byte	0
 2986 0330 00       		.byte	0
 2987 0331 3E       		.uleb128 0x3e
 2988 0332 34       		.uleb128 0x34
 2989 0333 00       		.byte	0
 2990 0334 03       		.uleb128 0x3
 2991 0335 0E       		.uleb128 0xe
 2992 0336 3A       		.uleb128 0x3a
 2993 0337 0B       		.uleb128 0xb
 2994 0338 3B       		.uleb128 0x3b
 2995 0339 0B       		.uleb128 0xb
 2996 033a 49       		.uleb128 0x49
 2997 033b 13       		.uleb128 0x13
 2998 033c 1C       		.uleb128 0x1c
 2999 033d 0A       		.uleb128 0xa
 3000 033e 00       		.byte	0
 3001 033f 00       		.byte	0
 3002 0340 00       		.byte	0
 3003              		.section	.debug_loc,"",%progbits
 3004              	.Ldebug_loc0:
 3005              	.LLST0:
 3006 0000 00000000 		.4byte	.LVL0
 3007 0004 08000000 		.4byte	.LVL1
 3008 0008 0100     		.2byte	0x1
 3009 000a 51       		.byte	0x51
 3010 000b 08000000 		.4byte	.LVL1
 3011 000f 18000000 		.4byte	.LFE251
 3012 0013 0400     		.2byte	0x4
 3013 0015 F3       		.byte	0xf3
 3014 0016 01       		.uleb128 0x1
 3015 0017 51       		.byte	0x51
 3016 0018 9F       		.byte	0x9f
 3017 0019 00000000 		.4byte	0
 3018 001d 00000000 		.4byte	0
 3019              	.LLST1:
 3020 0021 18000000 		.4byte	.LVL2
ARM GAS  /var/folders/dt/hjs72d_11kddbzhkd4h37c6c0000gn/T//ccCZYdSq.s 			page 54


 3021 0025 50000000 		.4byte	.LVL4
 3022 0029 0100     		.2byte	0x1
 3023 002b 50       		.byte	0x50
 3024 002c 50000000 		.4byte	.LVL4
 3025 0030 08020000 		.4byte	.LFE252
 3026 0034 0400     		.2byte	0x4
 3027 0036 F3       		.byte	0xf3
 3028 0037 01       		.uleb128 0x1
 3029 0038 50       		.byte	0x50
 3030 0039 9F       		.byte	0x9f
 3031 003a 00000000 		.4byte	0
 3032 003e 00000000 		.4byte	0
 3033              	.LLST2:
 3034 0042 18000000 		.4byte	.LVL2
 3035 0046 62000000 		.4byte	.LVL6
 3036 004a 0100     		.2byte	0x1
 3037 004c 51       		.byte	0x51
 3038 004d 62000000 		.4byte	.LVL6
 3039 0051 08020000 		.4byte	.LFE252
 3040 0055 0400     		.2byte	0x4
 3041 0057 F3       		.byte	0xf3
 3042 0058 01       		.uleb128 0x1
 3043 0059 51       		.byte	0x51
 3044 005a 9F       		.byte	0x9f
 3045 005b 00000000 		.4byte	0
 3046 005f 00000000 		.4byte	0
 3047              	.LLST3:
 3048 0063 18000000 		.4byte	.LVL2
 3049 0067 62000000 		.4byte	.LVL6
 3050 006b 0100     		.2byte	0x1
 3051 006d 52       		.byte	0x52
 3052 006e 62000000 		.4byte	.LVL6
 3053 0072 08020000 		.4byte	.LFE252
 3054 0076 0400     		.2byte	0x4
 3055 0078 F3       		.byte	0xf3
 3056 0079 01       		.uleb128 0x1
 3057 007a 52       		.byte	0x52
 3058 007b 9F       		.byte	0x9f
 3059 007c 00000000 		.4byte	0
 3060 0080 00000000 		.4byte	0
 3061              	.LLST4:
 3062 0084 18000000 		.4byte	.LVL2
 3063 0088 52000000 		.4byte	.LVL5
 3064 008c 0100     		.2byte	0x1
 3065 008e 53       		.byte	0x53
 3066 008f 52000000 		.4byte	.LVL5
 3067 0093 62000000 		.4byte	.LVL6
 3068 0097 0300     		.2byte	0x3
 3069 0099 73       		.byte	0x73
 3070 009a 78       		.sleb128 -8
 3071 009b 9F       		.byte	0x9f
 3072 009c 62000000 		.4byte	.LVL6
 3073 00a0 08020000 		.4byte	.LFE252
 3074 00a4 0400     		.2byte	0x4
 3075 00a6 F3       		.byte	0xf3
 3076 00a7 01       		.uleb128 0x1
 3077 00a8 53       		.byte	0x53
ARM GAS  /var/folders/dt/hjs72d_11kddbzhkd4h37c6c0000gn/T//ccCZYdSq.s 			page 55


 3078 00a9 9F       		.byte	0x9f
 3079 00aa 00000000 		.4byte	0
 3080 00ae 00000000 		.4byte	0
 3081              	.LLST5:
 3082 00b2 18000000 		.4byte	.LVL2
 3083 00b6 EA010000 		.4byte	.LVL57
 3084 00ba 0200     		.2byte	0x2
 3085 00bc 91       		.byte	0x91
 3086 00bd 00       		.sleb128 0
 3087 00be EA010000 		.4byte	.LVL57
 3088 00c2 08020000 		.4byte	.LFE252
 3089 00c6 0200     		.2byte	0x2
 3090 00c8 7D       		.byte	0x7d
 3091 00c9 00       		.sleb128 0
 3092 00ca 00000000 		.4byte	0
 3093 00ce 00000000 		.4byte	0
 3094              	.LLST6:
 3095 00d2 18000000 		.4byte	.LVL2
 3096 00d6 C0010000 		.4byte	.LVL52
 3097 00da 0100     		.2byte	0x1
 3098 00dc 51       		.byte	0x51
 3099 00dd C0010000 		.4byte	.LVL52
 3100 00e1 CA010000 		.4byte	.LVL53
 3101 00e5 0300     		.2byte	0x3
 3102 00e7 71       		.byte	0x71
 3103 00e8 04       		.sleb128 4
 3104 00e9 9F       		.byte	0x9f
 3105 00ea CA010000 		.4byte	.LVL53
 3106 00ee 08020000 		.4byte	.LFE252
 3107 00f2 0100     		.2byte	0x1
 3108 00f4 51       		.byte	0x51
 3109 00f5 00000000 		.4byte	0
 3110 00f9 00000000 		.4byte	0
 3111              	.LLST7:
 3112 00fd 4E000000 		.4byte	.LVL3
 3113 0101 52000000 		.4byte	.LVL5
 3114 0105 0100     		.2byte	0x1
 3115 0107 53       		.byte	0x53
 3116 0108 52000000 		.4byte	.LVL5
 3117 010c 62000000 		.4byte	.LVL6
 3118 0110 0300     		.2byte	0x3
 3119 0112 73       		.byte	0x73
 3120 0113 78       		.sleb128 -8
 3121 0114 9F       		.byte	0x9f
 3122 0115 62000000 		.4byte	.LVL6
 3123 0119 CA010000 		.4byte	.LVL53
 3124 011d 0B00     		.2byte	0xb
 3125 011f 71       		.byte	0x71
 3126 0120 00       		.sleb128 0
 3127 0121 F3       		.byte	0xf3
 3128 0122 01       		.uleb128 0x1
 3129 0123 53       		.byte	0x53
 3130 0124 22       		.byte	0x22
 3131 0125 F3       		.byte	0xf3
 3132 0126 01       		.uleb128 0x1
 3133 0127 51       		.byte	0x51
 3134 0128 1C       		.byte	0x1c
ARM GAS  /var/folders/dt/hjs72d_11kddbzhkd4h37c6c0000gn/T//ccCZYdSq.s 			page 56


 3135 0129 9F       		.byte	0x9f
 3136 012a CA010000 		.4byte	.LVL53
 3137 012e D0010000 		.4byte	.LVL54
 3138 0132 0D00     		.2byte	0xd
 3139 0134 71       		.byte	0x71
 3140 0135 00       		.sleb128 0
 3141 0136 F3       		.byte	0xf3
 3142 0137 01       		.uleb128 0x1
 3143 0138 53       		.byte	0x53
 3144 0139 22       		.byte	0x22
 3145 013a F3       		.byte	0xf3
 3146 013b 01       		.uleb128 0x1
 3147 013c 51       		.byte	0x51
 3148 013d 1C       		.byte	0x1c
 3149 013e 38       		.byte	0x38
 3150 013f 1C       		.byte	0x1c
 3151 0140 9F       		.byte	0x9f
 3152 0141 D0010000 		.4byte	.LVL54
 3153 0145 D4010000 		.4byte	.LVL55
 3154 0149 0D00     		.2byte	0xd
 3155 014b 71       		.byte	0x71
 3156 014c 00       		.sleb128 0
 3157 014d F3       		.byte	0xf3
 3158 014e 01       		.uleb128 0x1
 3159 014f 51       		.byte	0x51
 3160 0150 1C       		.byte	0x1c
 3161 0151 F3       		.byte	0xf3
 3162 0152 01       		.uleb128 0x1
 3163 0153 53       		.byte	0x53
 3164 0154 22       		.byte	0x22
 3165 0155 34       		.byte	0x34
 3166 0156 1C       		.byte	0x1c
 3167 0157 9F       		.byte	0x9f
 3168 0158 D4010000 		.4byte	.LVL55
 3169 015c 08020000 		.4byte	.LFE252
 3170 0160 0B00     		.2byte	0xb
 3171 0162 71       		.byte	0x71
 3172 0163 00       		.sleb128 0
 3173 0164 F3       		.byte	0xf3
 3174 0165 01       		.uleb128 0x1
 3175 0166 53       		.byte	0x53
 3176 0167 22       		.byte	0x22
 3177 0168 F3       		.byte	0xf3
 3178 0169 01       		.uleb128 0x1
 3179 016a 51       		.byte	0x51
 3180 016b 1C       		.byte	0x1c
 3181 016c 9F       		.byte	0x9f
 3182 016d 00000000 		.4byte	0
 3183 0171 00000000 		.4byte	0
 3184              	.LLST8:
 3185 0175 4E000000 		.4byte	.LVL3
 3186 0179 62000000 		.4byte	.LVL6
 3187 017d 0200     		.2byte	0x2
 3188 017f 90       		.byte	0x90
 3189 0180 4C       		.uleb128 0x4c
 3190 0181 62000000 		.4byte	.LVL6
 3191 0185 70000000 		.4byte	.LVL8
ARM GAS  /var/folders/dt/hjs72d_11kddbzhkd4h37c6c0000gn/T//ccCZYdSq.s 			page 57


 3192 0189 0200     		.2byte	0x2
 3193 018b 90       		.byte	0x90
 3194 018c 4B       		.uleb128 0x4b
 3195 018d DA010000 		.4byte	.LVL56
 3196 0191 08020000 		.4byte	.LFE252
 3197 0195 0200     		.2byte	0x2
 3198 0197 90       		.byte	0x90
 3199 0198 4B       		.uleb128 0x4b
 3200 0199 00000000 		.4byte	0
 3201 019d 00000000 		.4byte	0
 3202              	.LLST9:
 3203 01a1 62000000 		.4byte	.LVL6
 3204 01a5 8C000000 		.4byte	.LVL10
 3205 01a9 0200     		.2byte	0x2
 3206 01ab 90       		.byte	0x90
 3207 01ac 4F       		.uleb128 0x4f
 3208 01ad 8E000000 		.4byte	.LVL11
 3209 01b1 9C000000 		.4byte	.LVL15
 3210 01b5 0200     		.2byte	0x2
 3211 01b7 90       		.byte	0x90
 3212 01b8 4F       		.uleb128 0x4f
 3213 01b9 A6000000 		.4byte	.LVL17
 3214 01bd B2000000 		.4byte	.LVL18
 3215 01c1 0200     		.2byte	0x2
 3216 01c3 90       		.byte	0x90
 3217 01c4 4F       		.uleb128 0x4f
 3218 01c5 B4000000 		.4byte	.LVL19
 3219 01c9 B8000000 		.4byte	.LVL20
 3220 01cd 0200     		.2byte	0x2
 3221 01cf 90       		.byte	0x90
 3222 01d0 4F       		.uleb128 0x4f
 3223 01d1 E2000000 		.4byte	.LVL24
 3224 01d5 E6000000 		.4byte	.LVL25
 3225 01d9 0200     		.2byte	0x2
 3226 01db 90       		.byte	0x90
 3227 01dc 4F       		.uleb128 0x4f
 3228 01dd FC000000 		.4byte	.LVL27
 3229 01e1 06010000 		.4byte	.LVL30
 3230 01e5 0200     		.2byte	0x2
 3231 01e7 90       		.byte	0x90
 3232 01e8 4F       		.uleb128 0x4f
 3233 01e9 10010000 		.4byte	.LVL32
 3234 01ed 1C010000 		.4byte	.LVL33
 3235 01f1 0200     		.2byte	0x2
 3236 01f3 90       		.byte	0x90
 3237 01f4 4F       		.uleb128 0x4f
 3238 01f5 1E010000 		.4byte	.LVL34
 3239 01f9 22010000 		.4byte	.LVL35
 3240 01fd 0200     		.2byte	0x2
 3241 01ff 90       		.byte	0x90
 3242 0200 4F       		.uleb128 0x4f
 3243 0201 56010000 		.4byte	.LVL39
 3244 0205 5A010000 		.4byte	.LVL40
 3245 0209 0200     		.2byte	0x2
 3246 020b 90       		.byte	0x90
 3247 020c 4F       		.uleb128 0x4f
 3248 020d 84010000 		.4byte	.LVL46
ARM GAS  /var/folders/dt/hjs72d_11kddbzhkd4h37c6c0000gn/T//ccCZYdSq.s 			page 58


 3249 0211 88010000 		.4byte	.LVL47
 3250 0215 0200     		.2byte	0x2
 3251 0217 90       		.byte	0x90
 3252 0218 4F       		.uleb128 0x4f
 3253 0219 A2010000 		.4byte	.LVL49
 3254 021d A6010000 		.4byte	.LVL50
 3255 0221 0200     		.2byte	0x2
 3256 0223 90       		.byte	0x90
 3257 0224 4F       		.uleb128 0x4f
 3258 0225 BC010000 		.4byte	.LVL51
 3259 0229 08020000 		.4byte	.LFE252
 3260 022d 0200     		.2byte	0x2
 3261 022f 90       		.byte	0x90
 3262 0230 4F       		.uleb128 0x4f
 3263 0231 00000000 		.4byte	0
 3264 0235 00000000 		.4byte	0
 3265              	.LLST10:
 3266 0239 68000000 		.4byte	.LVL7
 3267 023d 70000000 		.4byte	.LVL8
 3268 0241 0200     		.2byte	0x2
 3269 0243 90       		.byte	0x90
 3270 0244 46       		.uleb128 0x46
 3271 0245 00000000 		.4byte	0
 3272 0249 00000000 		.4byte	0
 3273              	.LLST11:
 3274 024d 68000000 		.4byte	.LVL7
 3275 0251 70000000 		.4byte	.LVL8
 3276 0255 0200     		.2byte	0x2
 3277 0257 90       		.byte	0x90
 3278 0258 4B       		.uleb128 0x4b
 3279 0259 00000000 		.4byte	0
 3280 025d 00000000 		.4byte	0
 3281              	.LLST12:
 3282 0261 68000000 		.4byte	.LVL7
 3283 0265 70000000 		.4byte	.LVL8
 3284 0269 0600     		.2byte	0x6
 3285 026b 9E       		.byte	0x9e
 3286 026c 04       		.uleb128 0x4
 3287 026d 6F12033B 		.4byte	0x3b03126f
 3288 0271 00000000 		.4byte	0
 3289 0275 00000000 		.4byte	0
 3290              	.LLST13:
 3291 0279 A2010000 		.4byte	.LVL49
 3292 027d BC010000 		.4byte	.LVL51
 3293 0281 0200     		.2byte	0x2
 3294 0283 90       		.byte	0x90
 3295 0284 4C       		.uleb128 0x4c
 3296 0285 00000000 		.4byte	0
 3297 0289 00000000 		.4byte	0
 3298              	.LLST14:
 3299 028d A2010000 		.4byte	.LVL49
 3300 0291 BC010000 		.4byte	.LVL51
 3301 0295 0600     		.2byte	0x6
 3302 0297 03       		.byte	0x3
 3303 0298 00000000 		.4byte	_ZL5s_lfo
 3304 029c 9F       		.byte	0x9f
 3305 029d 00000000 		.4byte	0
ARM GAS  /var/folders/dt/hjs72d_11kddbzhkd4h37c6c0000gn/T//ccCZYdSq.s 			page 59


 3306 02a1 00000000 		.4byte	0
 3307              	.LLST15:
 3308 02a5 A2010000 		.4byte	.LVL49
 3309 02a9 BC010000 		.4byte	.LVL51
 3310 02ad 1500     		.2byte	0x15
 3311 02af F5       		.byte	0xf5
 3312 02b0 4C       		.uleb128 0x4c
 3313 02b1 25       		.uleb128 0x25
 3314 02b2 F4       		.byte	0xf4
 3315 02b3 25       		.uleb128 0x25
 3316 02b4 04       		.byte	0x4
 3317 02b5 0000004F 		.4byte	0x4f000000
 3318 02b9 1E       		.byte	0x1e
 3319 02ba F7       		.byte	0xf7
 3320 02bb 2C       		.uleb128 0x2c
 3321 02bc F7       		.byte	0xf7
 3322 02bd 00       		.uleb128 0
 3323 02be 31       		.byte	0x31
 3324 02bf 24       		.byte	0x24
 3325 02c0 70       		.byte	0x70
 3326 02c1 00       		.sleb128 0
 3327 02c2 22       		.byte	0x22
 3328 02c3 9F       		.byte	0x9f
 3329 02c4 00000000 		.4byte	0
 3330 02c8 00000000 		.4byte	0
 3331              	.LLST16:
 3332 02cc 84010000 		.4byte	.LVL46
 3333 02d0 A0010000 		.4byte	.LVL48
 3334 02d4 0200     		.2byte	0x2
 3335 02d6 90       		.byte	0x90
 3336 02d7 4C       		.uleb128 0x4c
 3337 02d8 00000000 		.4byte	0
 3338 02dc 00000000 		.4byte	0
 3339              	.LLST17:
 3340 02e0 84010000 		.4byte	.LVL46
 3341 02e4 A0010000 		.4byte	.LVL48
 3342 02e8 0600     		.2byte	0x6
 3343 02ea 03       		.byte	0x3
 3344 02eb 00000000 		.4byte	_ZL5s_lfo
 3345 02ef 9F       		.byte	0x9f
 3346 02f0 00000000 		.4byte	0
 3347 02f4 00000000 		.4byte	0
 3348              	.LLST18:
 3349 02f8 84010000 		.4byte	.LVL46
 3350 02fc A0010000 		.4byte	.LVL48
 3351 0300 1500     		.2byte	0x15
 3352 0302 F5       		.byte	0xf5
 3353 0303 4C       		.uleb128 0x4c
 3354 0304 25       		.uleb128 0x25
 3355 0305 F4       		.byte	0xf4
 3356 0306 25       		.uleb128 0x25
 3357 0307 04       		.byte	0x4
 3358 0308 0000004F 		.4byte	0x4f000000
 3359 030c 1E       		.byte	0x1e
 3360 030d F7       		.byte	0xf7
 3361 030e 2C       		.uleb128 0x2c
 3362 030f F7       		.byte	0xf7
ARM GAS  /var/folders/dt/hjs72d_11kddbzhkd4h37c6c0000gn/T//ccCZYdSq.s 			page 60


 3363 0310 00       		.uleb128 0
 3364 0311 31       		.byte	0x31
 3365 0312 24       		.byte	0x24
 3366 0313 70       		.byte	0x70
 3367 0314 00       		.sleb128 0
 3368 0315 22       		.byte	0x22
 3369 0316 9F       		.byte	0x9f
 3370 0317 00000000 		.4byte	0
 3371 031b 00000000 		.4byte	0
 3372              	.LLST19:
 3373 031f 56010000 		.4byte	.LVL39
 3374 0323 6C010000 		.4byte	.LVL43
 3375 0327 0200     		.2byte	0x2
 3376 0329 90       		.byte	0x90
 3377 032a 4C       		.uleb128 0x4c
 3378 032b 00000000 		.4byte	0
 3379 032f 00000000 		.4byte	0
 3380              	.LLST20:
 3381 0333 56010000 		.4byte	.LVL39
 3382 0337 6C010000 		.4byte	.LVL43
 3383 033b 0600     		.2byte	0x6
 3384 033d 03       		.byte	0x3
 3385 033e 00000000 		.4byte	_ZL5s_lfo
 3386 0342 9F       		.byte	0x9f
 3387 0343 00000000 		.4byte	0
 3388 0347 00000000 		.4byte	0
 3389              	.LLST21:
 3390 034b 64010000 		.4byte	.LVL41
 3391 034f 6C010000 		.4byte	.LVL43
 3392 0353 0100     		.2byte	0x1
 3393 0355 52       		.byte	0x52
 3394 0356 00000000 		.4byte	0
 3395 035a 00000000 		.4byte	0
 3396              	.LLST22:
 3397 035e 70010000 		.4byte	.LVL44
 3398 0362 74010000 		.4byte	.LVL45
 3399 0366 0400     		.2byte	0x4
 3400 0368 40       		.byte	0x40
 3401 0369 4A       		.byte	0x4a
 3402 036a 24       		.byte	0x24
 3403 036b 9F       		.byte	0x9f
 3404 036c 00000000 		.4byte	0
 3405 0370 00000000 		.4byte	0
 3406              	.LLST23:
 3407 0374 68010000 		.4byte	.LVL42
 3408 0378 6C010000 		.4byte	.LVL43
 3409 037c 0100     		.2byte	0x1
 3410 037e 59       		.byte	0x59
 3411 037f 00000000 		.4byte	0
 3412 0383 00000000 		.4byte	0
 3413              	.LLST24:
 3414 0387 68010000 		.4byte	.LVL42
 3415 038b 6C010000 		.4byte	.LVL43
 3416 038f 0600     		.2byte	0x6
 3417 0391 72       		.byte	0x72
 3418 0392 00       		.sleb128 0
 3419 0393 79       		.byte	0x79
ARM GAS  /var/folders/dt/hjs72d_11kddbzhkd4h37c6c0000gn/T//ccCZYdSq.s 			page 61


 3420 0394 00       		.sleb128 0
 3421 0395 27       		.byte	0x27
 3422 0396 9F       		.byte	0x9f
 3423 0397 00000000 		.4byte	0
 3424 039b 00000000 		.4byte	0
 3425              	.LLST25:
 3426 039f A6000000 		.4byte	.LVL17
 3427 03a3 B4000000 		.4byte	.LVL19
 3428 03a7 0600     		.2byte	0x6
 3429 03a9 03       		.byte	0x3
 3430 03aa 00000000 		.4byte	_ZL5s_lfo
 3431 03ae 9F       		.byte	0x9f
 3432 03af 00000000 		.4byte	0
 3433 03b3 00000000 		.4byte	0
 3434              	.LLST26:
 3435 03b7 88000000 		.4byte	.LVL9
 3436 03bb 8E000000 		.4byte	.LVL11
 3437 03bf 0600     		.2byte	0x6
 3438 03c1 03       		.byte	0x3
 3439 03c2 00000000 		.4byte	_ZL5s_lfo
 3440 03c6 9F       		.byte	0x9f
 3441 03c7 00000000 		.4byte	0
 3442 03cb 00000000 		.4byte	0
 3443              	.LLST27:
 3444 03cf 8E000000 		.4byte	.LVL11
 3445 03d3 98000000 		.4byte	.LVL14
 3446 03d7 0600     		.2byte	0x6
 3447 03d9 03       		.byte	0x3
 3448 03da 00000000 		.4byte	_ZL5s_lfo
 3449 03de 9F       		.byte	0x9f
 3450 03df 00000000 		.4byte	0
 3451 03e3 00000000 		.4byte	0
 3452              	.LLST28:
 3453 03e7 92000000 		.4byte	.LVL12
 3454 03eb 98000000 		.4byte	.LVL14
 3455 03ef 0100     		.2byte	0x1
 3456 03f1 59       		.byte	0x59
 3457 03f2 00000000 		.4byte	0
 3458 03f6 00000000 		.4byte	0
 3459              	.LLST29:
 3460 03fa 92000000 		.4byte	.LVL12
 3461 03fe 96000000 		.4byte	.LVL13
 3462 0402 0600     		.2byte	0x6
 3463 0404 70       		.byte	0x70
 3464 0405 00       		.sleb128 0
 3465 0406 79       		.byte	0x79
 3466 0407 00       		.sleb128 0
 3467 0408 27       		.byte	0x27
 3468 0409 9F       		.byte	0x9f
 3469 040a 96000000 		.4byte	.LVL13
 3470 040e 98000000 		.4byte	.LVL14
 3471 0412 0100     		.2byte	0x1
 3472 0414 52       		.byte	0x52
 3473 0415 00000000 		.4byte	0
 3474 0419 00000000 		.4byte	0
 3475              	.LLST30:
 3476 041d 98000000 		.4byte	.LVL14
ARM GAS  /var/folders/dt/hjs72d_11kddbzhkd4h37c6c0000gn/T//ccCZYdSq.s 			page 62


 3477 0421 A4000000 		.4byte	.LVL16
 3478 0425 0600     		.2byte	0x6
 3479 0427 03       		.byte	0x3
 3480 0428 00000000 		.4byte	_ZL5s_lfo
 3481 042c 9F       		.byte	0x9f
 3482 042d 00000000 		.4byte	0
 3483 0431 00000000 		.4byte	0
 3484              	.LLST31:
 3485 0435 B4000000 		.4byte	.LVL19
 3486 0439 E0000000 		.4byte	.LVL23
 3487 043d 0600     		.2byte	0x6
 3488 043f 03       		.byte	0x3
 3489 0440 00000000 		.4byte	_ZL5s_lfo
 3490 0444 9F       		.byte	0x9f
 3491 0445 00000000 		.4byte	0
 3492 0449 00000000 		.4byte	0
 3493              	.LLST32:
 3494 044d C4000000 		.4byte	.LVL21
 3495 0451 DC000000 		.4byte	.LVL22
 3496 0455 0200     		.2byte	0x2
 3497 0457 90       		.byte	0x90
 3498 0458 4F       		.uleb128 0x4f
 3499 0459 DC000000 		.4byte	.LVL22
 3500 045d E0000000 		.4byte	.LVL23
 3501 0461 0B00     		.2byte	0xb
 3502 0463 70       		.byte	0x70
 3503 0464 00       		.sleb128 0
 3504 0465 F7       		.byte	0xf7
 3505 0466 2C       		.uleb128 0x2c
 3506 0467 F7       		.byte	0xf7
 3507 0468 25       		.uleb128 0x25
 3508 0469 F5       		.byte	0xf5
 3509 046a 4E       		.uleb128 0x4e
 3510 046b 25       		.uleb128 0x25
 3511 046c 1E       		.byte	0x1e
 3512 046d 9F       		.byte	0x9f
 3513 046e 00000000 		.4byte	0
 3514 0472 00000000 		.4byte	0
 3515              	.LLST33:
 3516 0476 E2000000 		.4byte	.LVL24
 3517 047a FA000000 		.4byte	.LVL26
 3518 047e 0600     		.2byte	0x6
 3519 0480 03       		.byte	0x3
 3520 0481 00000000 		.4byte	_ZL5s_lfo
 3521 0485 9F       		.byte	0x9f
 3522 0486 00000000 		.4byte	0
 3523 048a 00000000 		.4byte	0
 3524              	.LLST34:
 3525 048e E2000000 		.4byte	.LVL24
 3526 0492 FA000000 		.4byte	.LVL26
 3527 0496 0F00     		.2byte	0xf
 3528 0498 70       		.byte	0x70
 3529 0499 00       		.sleb128 0
 3530 049a F7       		.byte	0xf7
 3531 049b 2C       		.uleb128 0x2c
 3532 049c F7       		.byte	0xf7
 3533 049d 25       		.uleb128 0x25
ARM GAS  /var/folders/dt/hjs72d_11kddbzhkd4h37c6c0000gn/T//ccCZYdSq.s 			page 63


 3534 049e F4       		.byte	0xf4
 3535 049f 25       		.uleb128 0x25
 3536 04a0 04       		.byte	0x4
 3537 04a1 00000030 		.4byte	0x30000000
 3538 04a5 1E       		.byte	0x1e
 3539 04a6 9F       		.byte	0x9f
 3540 04a7 00000000 		.4byte	0
 3541 04ab 00000000 		.4byte	0
 3542              	.LLST35:
 3543 04af FC000000 		.4byte	.LVL27
 3544 04b3 0E010000 		.4byte	.LVL31
 3545 04b7 0600     		.2byte	0x6
 3546 04b9 03       		.byte	0x3
 3547 04ba 00000000 		.4byte	_ZL5s_lfo
 3548 04be 9F       		.byte	0x9f
 3549 04bf 00000000 		.4byte	0
 3550 04c3 00000000 		.4byte	0
 3551              	.LLST36:
 3552 04c7 FC000000 		.4byte	.LVL27
 3553 04cb 06010000 		.4byte	.LVL30
 3554 04cf 0400     		.2byte	0x4
 3555 04d1 40       		.byte	0x40
 3556 04d2 4A       		.byte	0x4a
 3557 04d3 24       		.byte	0x24
 3558 04d4 9F       		.byte	0x9f
 3559 04d5 00000000 		.4byte	0
 3560 04d9 00000000 		.4byte	0
 3561              	.LLST37:
 3562 04dd FC000000 		.4byte	.LVL27
 3563 04e1 FE000000 		.4byte	.LVL28
 3564 04e5 0500     		.2byte	0x5
 3565 04e7 70       		.byte	0x70
 3566 04e8 00       		.sleb128 0
 3567 04e9 31       		.byte	0x31
 3568 04ea 26       		.byte	0x26
 3569 04eb 9F       		.byte	0x9f
 3570 04ec FE000000 		.4byte	.LVL28
 3571 04f0 02010000 		.4byte	.LVL29
 3572 04f4 0100     		.2byte	0x1
 3573 04f6 52       		.byte	0x52
 3574 04f7 02010000 		.4byte	.LVL29
 3575 04fb 06010000 		.4byte	.LVL30
 3576 04ff 0500     		.2byte	0x5
 3577 0501 70       		.byte	0x70
 3578 0502 00       		.sleb128 0
 3579 0503 31       		.byte	0x31
 3580 0504 26       		.byte	0x26
 3581 0505 9F       		.byte	0x9f
 3582 0506 00000000 		.4byte	0
 3583 050a 00000000 		.4byte	0
 3584              	.LLST38:
 3585 050e 1E010000 		.4byte	.LVL34
 3586 0512 30010000 		.4byte	.LVL36
 3587 0516 0200     		.2byte	0x2
 3588 0518 90       		.byte	0x90
 3589 0519 4C       		.uleb128 0x4c
 3590 051a 00000000 		.4byte	0
ARM GAS  /var/folders/dt/hjs72d_11kddbzhkd4h37c6c0000gn/T//ccCZYdSq.s 			page 64


 3591 051e 00000000 		.4byte	0
 3592              	.LLST39:
 3593 0522 1E010000 		.4byte	.LVL34
 3594 0526 30010000 		.4byte	.LVL36
 3595 052a 0600     		.2byte	0x6
 3596 052c 03       		.byte	0x3
 3597 052d 00000000 		.4byte	_ZL5s_lfo
 3598 0531 9F       		.byte	0x9f
 3599 0532 00000000 		.4byte	0
 3600 0536 00000000 		.4byte	0
 3601              	.LLST40:
 3602 053a 38010000 		.4byte	.LVL37
 3603 053e 50010000 		.4byte	.LVL38
 3604 0542 0200     		.2byte	0x2
 3605 0544 90       		.byte	0x90
 3606 0545 43       		.uleb128 0x43
 3607 0546 00000000 		.4byte	0
 3608 054a 00000000 		.4byte	0
 3609              	.LLST41:
 3610 054e 10020000 		.4byte	.LVL59
 3611 0552 20020000 		.4byte	.LVL60
 3612 0556 0200     		.2byte	0x2
 3613 0558 90       		.byte	0x90
 3614 0559 4F       		.uleb128 0x4f
 3615 055a 20020000 		.4byte	.LVL60
 3616 055e 4A020000 		.4byte	.LVL61
 3617 0562 0F00     		.2byte	0xf
 3618 0564 71       		.byte	0x71
 3619 0565 00       		.sleb128 0
 3620 0566 F7       		.byte	0xf7
 3621 0567 2C       		.uleb128 0x2c
 3622 0568 F7       		.byte	0xf7
 3623 0569 25       		.uleb128 0x25
 3624 056a F4       		.byte	0xf4
 3625 056b 25       		.uleb128 0x25
 3626 056c 04       		.byte	0x4
 3627 056d 00000030 		.4byte	0x30000000
 3628 0571 1E       		.byte	0x1e
 3629 0572 9F       		.byte	0x9f
 3630 0573 4A020000 		.4byte	.LVL61
 3631 0577 58020000 		.4byte	.LFE253
 3632 057b 0200     		.2byte	0x2
 3633 057d 90       		.byte	0x90
 3634 057e 4F       		.uleb128 0x4f
 3635 057f 00000000 		.4byte	0
 3636 0583 00000000 		.4byte	0
 3637              	.LLST42:
 3638 0587 00000000 		.4byte	.LVL62
 3639 058b 0C000000 		.4byte	.LVL63
 3640 058f 0400     		.2byte	0x4
 3641 0591 0A       		.byte	0xa
 3642 0592 FFFF     		.2byte	0xffff
 3643 0594 9F       		.byte	0x9f
 3644 0595 00000000 		.4byte	0
 3645 0599 00000000 		.4byte	0
 3646              	.LLST43:
 3647 059d 00000000 		.4byte	.LVL62
ARM GAS  /var/folders/dt/hjs72d_11kddbzhkd4h37c6c0000gn/T//ccCZYdSq.s 			page 65


 3648 05a1 0C000000 		.4byte	.LVL63
 3649 05a5 0200     		.2byte	0x2
 3650 05a7 31       		.byte	0x31
 3651 05a8 9F       		.byte	0x9f
 3652 05a9 00000000 		.4byte	0
 3653 05ad 00000000 		.4byte	0
 3654              		.section	.debug_aranges,"",%progbits
 3655 0000 24000000 		.4byte	0x24
 3656 0004 0200     		.2byte	0x2
 3657 0006 00000000 		.4byte	.Ldebug_info0
 3658 000a 04       		.byte	0x4
 3659 000b 00       		.byte	0
 3660 000c 0000     		.2byte	0
 3661 000e 0000     		.2byte	0
 3662 0010 00000000 		.4byte	.Ltext0
 3663 0014 58020000 		.4byte	.Letext0-.Ltext0
 3664 0018 00000000 		.4byte	.LFB255
 3665 001c 14000000 		.4byte	.LFE255-.LFB255
 3666 0020 00000000 		.4byte	0
 3667 0024 00000000 		.4byte	0
 3668              		.section	.debug_ranges,"",%progbits
 3669              	.Ldebug_ranges0:
 3670 0000 26000000 		.4byte	.LBB90
 3671 0004 28000000 		.4byte	.LBE90
 3672 0008 2C000000 		.4byte	.LBB151
 3673 000c 48000000 		.4byte	.LBE151
 3674 0010 56000000 		.4byte	.LBB152
 3675 0014 62000000 		.4byte	.LBE152
 3676 0018 68000000 		.4byte	.LBB153
 3677 001c D8010000 		.4byte	.LBE153
 3678 0020 00000000 		.4byte	0
 3679 0024 00000000 		.4byte	0
 3680 0028 30000000 		.4byte	.LBB93
 3681 002c 34000000 		.4byte	.LBE93
 3682 0030 68000000 		.4byte	.LBB120
 3683 0034 70000000 		.4byte	.LBE120
 3684 0038 00000000 		.4byte	0
 3685 003c 00000000 		.4byte	0
 3686 0040 34000000 		.4byte	.LBB96
 3687 0044 38000000 		.4byte	.LBE96
 3688 0048 A2010000 		.4byte	.LBB149
 3689 004c AA010000 		.4byte	.LBE149
 3690 0050 00000000 		.4byte	0
 3691 0054 00000000 		.4byte	0
 3692 0058 38000000 		.4byte	.LBB99
 3693 005c 3C000000 		.4byte	.LBE99
 3694 0060 84010000 		.4byte	.LBB148
 3695 0064 A0010000 		.4byte	.LBE148
 3696 0068 00000000 		.4byte	0
 3697 006c 00000000 		.4byte	0
 3698 0070 3C000000 		.4byte	.LBB102
 3699 0074 40000000 		.4byte	.LBE102
 3700 0078 5E000000 		.4byte	.LBB119
 3701 007c 62000000 		.4byte	.LBE119
 3702 0080 56010000 		.4byte	.LBB147
 3703 0084 82010000 		.4byte	.LBE147
 3704 0088 00000000 		.4byte	0
ARM GAS  /var/folders/dt/hjs72d_11kddbzhkd4h37c6c0000gn/T//ccCZYdSq.s 			page 66


 3705 008c 00000000 		.4byte	0
 3706 0090 5E000000 		.4byte	.LBB104
 3707 0094 62000000 		.4byte	.LBE104
 3708 0098 70010000 		.4byte	.LBB109
 3709 009c 74010000 		.4byte	.LBE109
 3710 00a0 00000000 		.4byte	0
 3711 00a4 00000000 		.4byte	0
 3712 00a8 40000000 		.4byte	.LBB112
 3713 00ac 44000000 		.4byte	.LBE112
 3714 00b0 56000000 		.4byte	.LBB118
 3715 00b4 5E000000 		.4byte	.LBE118
 3716 00b8 A6000000 		.4byte	.LBB129
 3717 00bc B4000000 		.4byte	.LBE129
 3718 00c0 10010000 		.4byte	.LBB142
 3719 00c4 1E010000 		.4byte	.LBE142
 3720 00c8 AA010000 		.4byte	.LBB150
 3721 00cc BC010000 		.4byte	.LBE150
 3722 00d0 00000000 		.4byte	0
 3723 00d4 00000000 		.4byte	0
 3724 00d8 00000000 		.4byte	.Ltext0
 3725 00dc 58020000 		.4byte	.Letext0
 3726 00e0 00000000 		.4byte	.LFB255
 3727 00e4 14000000 		.4byte	.LFE255
 3728 00e8 00000000 		.4byte	0
 3729 00ec 00000000 		.4byte	0
 3730              		.section	.debug_line,"",%progbits
 3731              	.Ldebug_line0:
 3732 0000 2C030000 		.section	.debug_str,"MS",%progbits,1
 3732      0200E301 
 3732      00000201 
 3732      FB0E0D00 
 3732      01010101 
 3733              	.LASF20:
 3734 0000 6633325F 		.ascii	"f32_t\000"
 3734      7400
 3735              	.LASF54:
 3736 0006 5F5A4E33 		.ascii	"_ZN3dsp9SimpleLFO12triangle_uniEv\000"
 3736      64737039 
 3736      53696D70 
 3736      6C654C46 
 3736      4F313274 
 3737              	.LASF110:
 3738 0028 5F686F6F 		.ascii	"_hook_param\000"
 3738      6B5F7061 
 3738      72616D00 
 3739              	.LASF79:
 3740 0034 6B5F7472 		.ascii	"k_tri_uni\000"
 3740      695F756E 
 3740      6900
 3741              	.LASF134:
 3742 003e 32317573 		.ascii	"21user_modfx_param_id_t\000"
 3742      65725F6D 
 3742      6F646678 
 3742      5F706172 
 3742      616D5F69 
 3743              	.LASF52:
 3744 0056 5F5A4E33 		.ascii	"_ZN3dsp9SimpleLFO11triangle_biEv\000"
ARM GAS  /var/folders/dt/hjs72d_11kddbzhkd4h37c6c0000gn/T//ccCZYdSq.s 			page 67


 3744      64737039 
 3744      53696D70 
 3744      6C654C46 
 3744      4F313174 
 3745              	.LASF75:
 3746 0077 6B5F7472 		.ascii	"k_tri\000"
 3746      6900
 3747              	.LASF129:
 3748 007d 474E5520 		.ascii	"GNU C++11 5.4.1 20160919 (release) [ARM/embedded-5-"
 3748      432B2B31 
 3748      3120352E 
 3748      342E3120 
 3748      32303136 
 3749 00b0 6272616E 		.ascii	"branch revision 240496] -mcpu=cortex-m4 -mthumb -mn"
 3749      63682072 
 3749      65766973 
 3749      696F6E20 
 3749      32343034 
 3750 00e3 6F2D7468 		.ascii	"o-thumb-interwork -mlittle-endian -mfloat-abi=hard "
 3750      756D622D 
 3750      696E7465 
 3750      72776F72 
 3750      6B202D6D 
 3751 0116 2D6D6670 		.ascii	"-mfpu=fpv4-sp-d16 -g -Os -std=c++11 -fsingle-precis"
 3751      753D6670 
 3751      76342D73 
 3751      702D6431 
 3751      36202D67 
 3752 0149 696F6E2D 		.ascii	"ion-constant -fcheck-new -fno-rtti -fno-exceptions "
 3752      636F6E73 
 3752      74616E74 
 3752      202D6663 
 3752      6865636B 
 3753 017c 2D666E6F 		.ascii	"-fno-non-call-exceptions\000"
 3753      2D6E6F6E 
 3753      2D63616C 
 3753      6C2D6578 
 3753      63657074 
 3754              	.LASF12:
 3755 0195 756E7369 		.ascii	"unsigned int\000"
 3755      676E6564 
 3755      20696E74 
 3755      00
 3756              	.LASF123:
 3757 01a2 62697472 		.ascii	"bitres_lut_f\000"
 3757      65735F6C 
 3757      75745F66 
 3757      00
 3758              	.LASF6:
 3759 01af 5F5F696E 		.ascii	"__int32_t\000"
 3759      7433325F 
 3759      7400
 3760              	.LASF78:
 3761 01b9 6B5F7369 		.ascii	"k_sin_uni\000"
 3761      6E5F756E 
 3761      6900
 3762              	.LASF101:
ARM GAS  /var/folders/dt/hjs72d_11kddbzhkd4h37c6c0000gn/T//ccCZYdSq.s 			page 68


 3763 01c3 706C6174 		.ascii	"platform\000"
 3763      666F726D 
 3763      00
 3764              	.LASF88:
 3765 01cc 73695F66 		.ascii	"si_fabsf\000"
 3765      61627366 
 3765      00
 3766              	.LASF118:
 3767 01d5 74616E70 		.ascii	"tanpi_lut_f\000"
 3767      695F6C75 
 3767      745F6600 
 3768              	.LASF89:
 3769 01e1 5F5F5153 		.ascii	"__QSUB\000"
 3769      554200
 3770              	.LASF59:
 3771 01e8 7361775F 		.ascii	"saw_bi\000"
 3771      626900
 3772              	.LASF128:
 3773 01ef 735F6673 		.ascii	"s_fs_recip\000"
 3773      5F726563 
 3773      697000
 3774              	.LASF80:
 3775 01fa 6B5F7361 		.ascii	"k_saw_uni\000"
 3775      775F756E 
 3775      6900
 3776              	.LASF15:
 3777 0204 75696E74 		.ascii	"uint32_t\000"
 3777      33325F74 
 3777      00
 3778              	.LASF113:
 3779 020d 76616C66 		.ascii	"valf\000"
 3779      00
 3780              	.LASF46:
 3781 0212 5F5A4E33 		.ascii	"_ZN3dsp9SimpleLFO8sine_uniEv\000"
 3781      64737039 
 3781      53696D70 
 3781      6C654C46 
 3781      4F387369 
 3782              	.LASF82:
 3783 022f 6B5F7369 		.ascii	"k_sin_off\000"
 3783      6E5F6F66 
 3783      6600
 3784              	.LASF124:
 3785 0239 735F6C66 		.ascii	"s_lfo\000"
 3785      6F00
 3786              	.LASF71:
 3787 023f 73717561 		.ascii	"square_bi_off\000"
 3787      72655F62 
 3787      695F6F66 
 3787      6600
 3788              	.LASF0:
 3789 024d 666C6F61 		.ascii	"float\000"
 3789      7400
 3790              	.LASF97:
 3791 0253 73695F72 		.ascii	"si_roundf\000"
 3791      6F756E64 
 3791      6600
ARM GAS  /var/folders/dt/hjs72d_11kddbzhkd4h37c6c0000gn/T//ccCZYdSq.s 			page 69


 3792              	.LASF111:
 3793 025d 696E6465 		.ascii	"index\000"
 3793      7800
 3794              	.LASF86:
 3795 0263 6B5F7761 		.ascii	"k_wave_count\000"
 3795      76655F63 
 3795      6F756E74 
 3795      00
 3796              	.LASF90:
 3797 0270 72657375 		.ascii	"result\000"
 3797      6C7400
 3798              	.LASF24:
 3799 0277 6B5F7573 		.ascii	"k_user_module_delfx\000"
 3799      65725F6D 
 3799      6F64756C 
 3799      655F6465 
 3799      6C667800 
 3800              	.LASF36:
 3801 028b 5F5A4E33 		.ascii	"_ZN3dsp9SimpleLFO5resetEv\000"
 3801      64737039 
 3801      53696D70 
 3801      6C654C46 
 3801      4F357265 
 3802              	.LASF11:
 3803 02a5 6C6F6E67 		.ascii	"long long unsigned int\000"
 3803      206C6F6E 
 3803      6720756E 
 3803      7369676E 
 3803      65642069 
 3804              	.LASF67:
 3805 02bc 73717561 		.ascii	"square_bi\000"
 3805      72655F62 
 3805      6900
 3806              	.LASF44:
 3807 02c6 5F5A4E33 		.ascii	"_ZN3dsp9SimpleLFO7sine_biEv\000"
 3807      64737039 
 3807      53696D70 
 3807      6C654C46 
 3807      4F377369 
 3808              	.LASF84:
 3809 02e2 6B5F7361 		.ascii	"k_saw_off\000"
 3809      775F6F66 
 3809      6600
 3810              	.LASF112:
 3811 02ec 76616C75 		.ascii	"value\000"
 3811      6500
 3812              	.LASF98:
 3813 02f2 5F5F696E 		.ascii	"__initialize_p\000"
 3813      69746961 
 3813      6C697A65 
 3813      5F7000
 3814              	.LASF47:
 3815 0301 73696E65 		.ascii	"sine_bi_off\000"
 3815      5F62695F 
 3815      6F666600 
 3816              	.LASF25:
 3817 030d 6B5F7573 		.ascii	"k_user_module_revfx\000"
ARM GAS  /var/folders/dt/hjs72d_11kddbzhkd4h37c6c0000gn/T//ccCZYdSq.s 			page 70


 3817      65725F6D 
 3817      6F64756C 
 3817      655F7265 
 3817      76667800 
 3818              	.LASF96:
 3819 0321 6F666673 		.ascii	"offset\000"
 3819      657400
 3820              	.LASF42:
 3821 0328 73696E65 		.ascii	"sine_bi\000"
 3821      5F626900 
 3822              	.LASF99:
 3823 0330 5F5F7072 		.ascii	"__priority\000"
 3823      696F7269 
 3823      747900
 3824              	.LASF30:
 3825 033b 6B5F6E75 		.ascii	"k_num_user_modfx_param_id\000"
 3825      6D5F7573 
 3825      65725F6D 
 3825      6F646678 
 3825      5F706172 
 3826              	.LASF43:
 3827 0355 5F5A4E33 		.ascii	"_ZN3dsp9SimpleLFOC4Ev\000"
 3827      64737039 
 3827      53696D70 
 3827      6C654C46 
 3827      4F433445 
 3828              	.LASF32:
 3829 036b 70686930 		.ascii	"phi0\000"
 3829      00
 3830              	.LASF65:
 3831 0370 7361775F 		.ascii	"saw_uni_off\000"
 3831      756E695F 
 3831      6F666600 
 3832              	.LASF66:
 3833 037c 5F5A4E33 		.ascii	"_ZN3dsp9SimpleLFO11saw_uni_offEf\000"
 3833      64737039 
 3833      53696D70 
 3833      6C654C46 
 3833      4F313173 
 3834              	.LASF40:
 3835 039d 5F5A4E33 		.ascii	"_ZN3dsp9SimpleLFO5setW0Ef\000"
 3835      64737039 
 3835      53696D70 
 3835      6C654C46 
 3835      4F357365 
 3836              	.LASF18:
 3837 03b7 63686172 		.ascii	"char\000"
 3837      00
 3838              	.LASF120:
 3839 03bc 706F7732 		.ascii	"pow2_lut_f\000"
 3839      5F6C7574 
 3839      5F6600
 3840              	.LASF55:
 3841 03c7 74726961 		.ascii	"triangle_bi_off\000"
 3841      6E676C65 
 3841      5F62695F 
 3841      6F666600 
ARM GAS  /var/folders/dt/hjs72d_11kddbzhkd4h37c6c0000gn/T//ccCZYdSq.s 			page 71


 3842              	.LASF114:
 3843 03d7 6B5F6678 		.ascii	"k_fx_api_platform\000"
 3843      5F617069 
 3843      5F706C61 
 3843      74666F72 
 3843      6D00
 3844              	.LASF72:
 3845 03e9 5F5A4E33 		.ascii	"_ZN3dsp9SimpleLFO13square_bi_offEf\000"
 3845      64737039 
 3845      53696D70 
 3845      6C654C46 
 3845      4F313373 
 3846              	.LASF109:
 3847 040c 77617665 		.ascii	"wave\000"
 3847      00
 3848              	.LASF126:
 3849 0411 735F7061 		.ascii	"s_param_z\000"
 3849      72616D5F 
 3849      7A00
 3850              	.LASF31:
 3851 041b 75736572 		.ascii	"user_modfx_param_id_t\000"
 3851      5F6D6F64 
 3851      66785F70 
 3851      6172616D 
 3851      5F69645F 
 3852              	.LASF107:
 3853 0431 6672616D 		.ascii	"frames\000"
 3853      657300
 3854              	.LASF122:
 3855 0438 73636865 		.ascii	"schetzen_lut_f\000"
 3855      747A656E 
 3855      5F6C7574 
 3855      5F6600
 3856              	.LASF13:
 3857 0447 75696E74 		.ascii	"uint8_t\000"
 3857      385F7400 
 3858              	.LASF38:
 3859 044f 5F5A4E33 		.ascii	"_ZN3dsp9SimpleLFO5setF0Eff\000"
 3859      64737039 
 3859      53696D70 
 3859      6C654C46 
 3859      4F357365 
 3860              	.LASF50:
 3861 046a 5F5A4E33 		.ascii	"_ZN3dsp9SimpleLFO12sine_uni_offEf\000"
 3861      64737039 
 3861      53696D70 
 3861      6C654C46 
 3861      4F313273 
 3862              	.LASF117:
 3863 048c 6C6F675F 		.ascii	"log_lut_f\000"
 3863      6C75745F 
 3863      6600
 3864              	.LASF10:
 3865 0496 6C6F6E67 		.ascii	"long long int\000"
 3865      206C6F6E 
 3865      6720696E 
 3865      7400
ARM GAS  /var/folders/dt/hjs72d_11kddbzhkd4h37c6c0000gn/T//ccCZYdSq.s 			page 72


 3866              	.LASF28:
 3867 04a4 6B5F7573 		.ascii	"k_user_modfx_param_time\000"
 3867      65725F6D 
 3867      6F646678 
 3867      5F706172 
 3867      616D5F74 
 3868              	.LASF29:
 3869 04bc 6B5F7573 		.ascii	"k_user_modfx_param_depth\000"
 3869      65725F6D 
 3869      6F646678 
 3869      5F706172 
 3869      616D5F64 
 3870              	.LASF103:
 3871 04d5 6D61696E 		.ascii	"main_xn\000"
 3871      5F786E00 
 3872              	.LASF70:
 3873 04dd 5F5A4E33 		.ascii	"_ZN3dsp9SimpleLFO10square_uniEv\000"
 3873      64737039 
 3873      53696D70 
 3873      6C654C46 
 3873      4F313073 
 3874              	.LASF105:
 3875 04fd 7375625F 		.ascii	"sub_xn\000"
 3875      786E00
 3876              	.LASF27:
 3877 0504 6B5F6E75 		.ascii	"k_num_user_modules\000"
 3877      6D5F7573 
 3877      65725F6D 
 3877      6F64756C 
 3877      657300
 3878              	.LASF61:
 3879 0517 7361775F 		.ascii	"saw_uni\000"
 3879      756E6900 
 3880              	.LASF60:
 3881 051f 5F5A4E33 		.ascii	"_ZN3dsp9SimpleLFO6saw_biEv\000"
 3881      64737039 
 3881      53696D70 
 3881      6C654C46 
 3881      4F367361 
 3882              	.LASF76:
 3883 053a 6B5F7361 		.ascii	"k_saw\000"
 3883      7700
 3884              	.LASF48:
 3885 0540 5F5A4E33 		.ascii	"_ZN3dsp9SimpleLFO11sine_bi_offEf\000"
 3885      64737039 
 3885      53696D70 
 3885      6C654C46 
 3885      4F313173 
 3886              	.LASF133:
 3887 0561 35663332 		.ascii	"5f32_t\000"
 3887      5F7400
 3888              	.LASF137:
 3889 0568 5F474C4F 		.ascii	"_GLOBAL__sub_I__hook_init\000"
 3889      42414C5F 
 3889      5F737562 
 3889      5F495F5F 
 3889      686F6F6B 
ARM GAS  /var/folders/dt/hjs72d_11kddbzhkd4h37c6c0000gn/T//ccCZYdSq.s 			page 73


 3890              	.LASF104:
 3891 0582 6D61696E 		.ascii	"main_yn\000"
 3891      5F796E00 
 3892              	.LASF77:
 3893 058a 6B5F7371 		.ascii	"k_sqr\000"
 3893      7200
 3894              	.LASF106:
 3895 0590 7375625F 		.ascii	"sub_yn\000"
 3895      796E00
 3896              	.LASF26:
 3897 0597 6B5F7573 		.ascii	"k_user_module_osc\000"
 3897      65725F6D 
 3897      6F64756C 
 3897      655F6F73 
 3897      6300
 3898              	.LASF81:
 3899 05a9 6B5F7371 		.ascii	"k_sqr_uni\000"
 3899      725F756E 
 3899      6900
 3900              	.LASF16:
 3901 05b3 6C6F6E67 		.ascii	"long double\000"
 3901      20646F75 
 3901      626C6500 
 3902              	.LASF92:
 3903 05bf 74686973 		.ascii	"this\000"
 3903      00
 3904              	.LASF136:
 3905 05c4 5F5F7374 		.ascii	"__static_initialization_and_destruction_0\000"
 3905      61746963 
 3905      5F696E69 
 3905      7469616C 
 3905      697A6174 
 3906              	.LASF51:
 3907 05ee 74726961 		.ascii	"triangle_bi\000"
 3907      6E676C65 
 3907      5F626900 
 3908              	.LASF102:
 3909 05fa 5F686F6F 		.ascii	"_hook_process\000"
 3909      6B5F7072 
 3909      6F636573 
 3909      7300
 3910              	.LASF58:
 3911 0608 5F5A4E33 		.ascii	"_ZN3dsp9SimpleLFO16triangle_uni_offEf\000"
 3911      64737039 
 3911      53696D70 
 3911      6C654C46 
 3911      4F313674 
 3912              	.LASF100:
 3913 062e 5F686F6F 		.ascii	"_hook_init\000"
 3913      6B5F696E 
 3913      697400
 3914              	.LASF3:
 3915 0639 73686F72 		.ascii	"short int\000"
 3915      7420696E 
 3915      7400
 3916              	.LASF119:
 3917 0643 73717274 		.ascii	"sqrtm2log_lut_f\000"
ARM GAS  /var/folders/dt/hjs72d_11kddbzhkd4h37c6c0000gn/T//ccCZYdSq.s 			page 74


 3917      6D326C6F 
 3917      675F6C75 
 3917      745F6600 
 3918              	.LASF121:
 3919 0653 63756269 		.ascii	"cubicsat_lut_f\000"
 3919      63736174 
 3919      5F6C7574 
 3919      5F6600
 3920              	.LASF7:
 3921 0662 6C6F6E67 		.ascii	"long int\000"
 3921      20696E74 
 3921      00
 3922              	.LASF37:
 3923 066b 73657446 		.ascii	"setF0\000"
 3923      3000
 3924              	.LASF35:
 3925 0671 5F5A4E33 		.ascii	"_ZN3dsp9SimpleLFO5cycleEv\000"
 3925      64737039 
 3925      53696D70 
 3925      6C654C46 
 3925      4F356379 
 3926              	.LASF115:
 3927 068b 6B5F6678 		.ascii	"k_fx_api_version\000"
 3927      5F617069 
 3927      5F766572 
 3927      73696F6E 
 3927      00
 3928              	.LASF23:
 3929 069c 6B5F7573 		.ascii	"k_user_module_modfx\000"
 3929      65725F6D 
 3929      6F64756C 
 3929      655F6D6F 
 3929      64667800 
 3930              	.LASF33:
 3931 06b0 6379636C 		.ascii	"cycle\000"
 3931      6500
 3932              	.LASF85:
 3933 06b6 6B5F7371 		.ascii	"k_sqr_off\000"
 3933      725F6F66 
 3933      6600
 3934              	.LASF45:
 3935 06c0 73696E65 		.ascii	"sine_uni\000"
 3935      5F756E69 
 3935      00
 3936              	.LASF56:
 3937 06c9 5F5A4E33 		.ascii	"_ZN3dsp9SimpleLFO15triangle_bi_offEf\000"
 3937      64737039 
 3937      53696D70 
 3937      6C654C46 
 3937      4F313574 
 3938              	.LASF95:
 3939 06ee 70686966 		.ascii	"phif\000"
 3939      00
 3940              	.LASF74:
 3941 06f3 6B5F7369 		.ascii	"k_sin\000"
 3941      6E00
 3942              	.LASF127:
ARM GAS  /var/folders/dt/hjs72d_11kddbzhkd4h37c6c0000gn/T//ccCZYdSq.s 			page 75


 3943 06f9 735F7061 		.ascii	"s_param\000"
 3943      72616D00 
 3944              	.LASF34:
 3945 0701 72657365 		.ascii	"reset\000"
 3945      7400
 3946              	.LASF5:
 3947 0707 5F5F7569 		.ascii	"__uint8_t\000"
 3947      6E74385F 
 3947      7400
 3948              	.LASF49:
 3949 0711 73696E65 		.ascii	"sine_uni_off\000"
 3949      5F756E69 
 3949      5F6F6666 
 3949      00
 3950              	.LASF21:
 3951 071e 7133315F 		.ascii	"q31_t\000"
 3951      7400
 3952              	.LASF108:
 3953 0724 6D795F65 		.ascii	"my_e\000"
 3953      00
 3954              	.LASF17:
 3955 0729 73697A65 		.ascii	"sizetype\000"
 3955      74797065 
 3955      00
 3956              	.LASF9:
 3957 0732 6C6F6E67 		.ascii	"long unsigned int\000"
 3957      20756E73 
 3957      69676E65 
 3957      6420696E 
 3957      7400
 3958              	.LASF116:
 3959 0744 77745F73 		.ascii	"wt_sine_lut_f\000"
 3959      696E655F 
 3959      6C75745F 
 3959      6600
 3960              	.LASF39:
 3961 0752 73657457 		.ascii	"setW0\000"
 3961      3000
 3962              	.LASF14:
 3963 0758 696E7433 		.ascii	"int32_t\000"
 3963      325F7400 
 3964              	.LASF73:
 3965 0760 73717561 		.ascii	"square_uni_off\000"
 3965      72655F75 
 3965      6E695F6F 
 3965      666600
 3966              	.LASF94:
 3967 076f 6C696E69 		.ascii	"linintf\000"
 3967      6E746600 
 3968              	.LASF93:
 3969 0777 66737265 		.ascii	"fsrecip\000"
 3969      63697000 
 3970              	.LASF2:
 3971 077f 756E7369 		.ascii	"unsigned char\000"
 3971      676E6564 
 3971      20636861 
 3971      7200
ARM GAS  /var/folders/dt/hjs72d_11kddbzhkd4h37c6c0000gn/T//ccCZYdSq.s 			page 76


 3972              	.LASF8:
 3973 078d 5F5F7569 		.ascii	"__uint32_t\000"
 3973      6E743332 
 3973      5F7400
 3974              	.LASF57:
 3975 0798 74726961 		.ascii	"triangle_uni_off\000"
 3975      6E676C65 
 3975      5F756E69 
 3975      5F6F6666 
 3975      00
 3976              	.LASF22:
 3977 07a9 6B5F7573 		.ascii	"k_user_module_global\000"
 3977      65725F6D 
 3977      6F64756C 
 3977      655F676C 
 3977      6F62616C 
 3978              	.LASF132:
 3979 07be 6465636C 		.ascii	"decltype(nullptr)\000"
 3979      74797065 
 3979      286E756C 
 3979      6C707472 
 3979      2900
 3980              	.LASF68:
 3981 07d0 73717561 		.ascii	"square_uni\000"
 3981      72655F75 
 3981      6E6900
 3982              	.LASF135:
 3983 07db 5F5A4E33 		.ascii	"_ZN3dsp9SimpleLFO14square_uni_offEf\000"
 3983      64737039 
 3983      53696D70 
 3983      6C654C46 
 3983      4F313473 
 3984              	.LASF130:
 3985 07ff 2E2E2F73 		.ascii	"../src/lfo.cpp\000"
 3985      72632F6C 
 3985      666F2E63 
 3985      707000
 3986              	.LASF131:
 3987 080e 2F557365 		.ascii	"/Users/markweiss/Documents/projects/logue-sdk/platf"
 3987      72732F6D 
 3987      61726B77 
 3987      65697373 
 3987      2F446F63 
 3988 0841 6F726D2F 		.ascii	"orm/minilogue-xd/modfx/tests/lfo\000"
 3988      6D696E69 
 3988      6C6F6775 
 3988      652D7864 
 3988      2F6D6F64 
 3989              	.LASF63:
 3990 0862 7361775F 		.ascii	"saw_bi_off\000"
 3990      62695F6F 
 3990      666600
 3991              	.LASF1:
 3992 086d 7369676E 		.ascii	"signed char\000"
 3992      65642063 
 3992      68617200 
 3993              	.LASF4:
ARM GAS  /var/folders/dt/hjs72d_11kddbzhkd4h37c6c0000gn/T//ccCZYdSq.s 			page 77


 3994 0879 73686F72 		.ascii	"short unsigned int\000"
 3994      7420756E 
 3994      7369676E 
 3994      65642069 
 3994      6E7400
 3995              	.LASF91:
 3996 088c 5F5F5141 		.ascii	"__QADD\000"
 3996      444400
 3997              	.LASF69:
 3998 0893 5F5A4E33 		.ascii	"_ZN3dsp9SimpleLFO9square_biEv\000"
 3998      64737039 
 3998      53696D70 
 3998      6C654C46 
 3998      4F397371 
 3999              	.LASF19:
 4000 08b1 646F7562 		.ascii	"double\000"
 4000      6C6500
 4001              	.LASF64:
 4002 08b8 5F5A4E33 		.ascii	"_ZN3dsp9SimpleLFO10saw_bi_offEf\000"
 4002      64737039 
 4002      53696D70 
 4002      6C654C46 
 4002      4F313073 
 4003              	.LASF83:
 4004 08d8 6B5F7472 		.ascii	"k_tri_off\000"
 4004      695F6F66 
 4004      6600
 4005              	.LASF125:
 4006 08e2 735F6C66 		.ascii	"s_lfo_wave\000"
 4006      6F5F7761 
 4006      766500
 4007              	.LASF53:
 4008 08ed 74726961 		.ascii	"triangle_uni\000"
 4008      6E676C65 
 4008      5F756E69 
 4008      00
 4009              	.LASF62:
 4010 08fa 5F5A4E33 		.ascii	"_ZN3dsp9SimpleLFO7saw_uniEv\000"
 4010      64737039 
 4010      53696D70 
 4010      6C654C46 
 4010      4F377361 
 4011              	.LASF87:
 4012 0916 73695F63 		.ascii	"si_copysignf\000"
 4012      6F707973 
 4012      69676E66 
 4012      00
 4013              	.LASF41:
 4014 0923 53696D70 		.ascii	"SimpleLFO\000"
 4014      6C654C46 
 4014      4F00
 4015              		.ident	"GCC: (GNU Tools for ARM Embedded Processors) 5.4.1 20160919 (release) [ARM/embedded-5-bran
ARM GAS  /var/folders/dt/hjs72d_11kddbzhkd4h37c6c0000gn/T//ccCZYdSq.s 			page 78


DEFINED SYMBOLS
                            *ABS*:0000000000000000 lfo.cpp
/var/folders/dt/hjs72d_11kddbzhkd4h37c6c0000gn/T//ccCZYdSq.s:21     .text:0000000000000000 $t
/var/folders/dt/hjs72d_11kddbzhkd4h37c6c0000gn/T//ccCZYdSq.s:26     .text:0000000000000000 _hook_init
/var/folders/dt/hjs72d_11kddbzhkd4h37c6c0000gn/T//ccCZYdSq.s:53     .text:0000000000000010 $d
/var/folders/dt/hjs72d_11kddbzhkd4h37c6c0000gn/T//ccCZYdSq.s:60     .text:0000000000000018 $t
/var/folders/dt/hjs72d_11kddbzhkd4h37c6c0000gn/T//ccCZYdSq.s:65     .text:0000000000000018 _hook_process
/var/folders/dt/hjs72d_11kddbzhkd4h37c6c0000gn/T//ccCZYdSq.s:190    .text:000000000000007c $d
/var/folders/dt/hjs72d_11kddbzhkd4h37c6c0000gn/T//ccCZYdSq.s:202    .text:0000000000000088 $t
/var/folders/dt/hjs72d_11kddbzhkd4h37c6c0000gn/T//ccCZYdSq.s:507    .text:00000000000001ec $d
/var/folders/dt/hjs72d_11kddbzhkd4h37c6c0000gn/T//ccCZYdSq.s:517    .text:0000000000000208 $t
/var/folders/dt/hjs72d_11kddbzhkd4h37c6c0000gn/T//ccCZYdSq.s:522    .text:0000000000000208 _hook_param
/var/folders/dt/hjs72d_11kddbzhkd4h37c6c0000gn/T//ccCZYdSq.s:576    .text:0000000000000254 $d
/var/folders/dt/hjs72d_11kddbzhkd4h37c6c0000gn/T//ccCZYdSq.s:581    .text.startup:0000000000000000 $t
/var/folders/dt/hjs72d_11kddbzhkd4h37c6c0000gn/T//ccCZYdSq.s:585    .text.startup:0000000000000000 _GLOBAL__sub_I__hook_init
/var/folders/dt/hjs72d_11kddbzhkd4h37c6c0000gn/T//ccCZYdSq.s:606    .text.startup:0000000000000010 $d
/var/folders/dt/hjs72d_11kddbzhkd4h37c6c0000gn/T//ccCZYdSq.s:614    .init_array:0000000000000000 $d
/var/folders/dt/hjs72d_11kddbzhkd4h37c6c0000gn/T//ccCZYdSq.s:617    .bss:0000000000000000 $d
/var/folders/dt/hjs72d_11kddbzhkd4h37c6c0000gn/T//ccCZYdSq.s:621    .bss:0000000000000000 _ZL5s_lfo
/var/folders/dt/hjs72d_11kddbzhkd4h37c6c0000gn/T//ccCZYdSq.s:625    .bss:0000000000000008 _ZL7s_param
/var/folders/dt/hjs72d_11kddbzhkd4h37c6c0000gn/T//ccCZYdSq.s:629    .bss:000000000000000c _ZL9s_param_z
/var/folders/dt/hjs72d_11kddbzhkd4h37c6c0000gn/T//ccCZYdSq.s:633    .bss:0000000000000010 _ZL10s_lfo_wave
                     .debug_frame:0000000000000010 $d

NO UNDEFINED SYMBOLS
