ARM GAS  /var/folders/dt/hjs72d_11kddbzhkd4h37c6c0000gn/T//ccz5ToXx.s 			page 1


   1              		.syntax unified
   2              		.cpu cortex-m4
   3              		.eabi_attribute 27, 1
   4              		.eabi_attribute 28, 1
   5              		.fpu fpv4-sp-d16
   6              		.eabi_attribute 20, 1
   7              		.eabi_attribute 21, 1
   8              		.eabi_attribute 23, 3
   9              		.eabi_attribute 24, 1
  10              		.eabi_attribute 25, 1
  11              		.eabi_attribute 26, 1
  12              		.eabi_attribute 30, 4
  13              		.eabi_attribute 34, 1
  14              		.eabi_attribute 18, 4
  15              		.thumb
  16              		.syntax unified
  17              		.file	"waves.cpp"
  18              		.text
  19              	.Ltext0:
  20              		.cfi_sections	.debug_frame
  21              		.section	.text._ZN5Waves5StateC2Ev,"axG",%progbits,_ZN5Waves5StateC5Ev,comdat
  22              		.align	1
  23              		.weak	_ZN5Waves5StateC2Ev
  24              		.thumb
  25              		.thumb_func
  26              		.type	_ZN5Waves5StateC2Ev, %function
  27              	_ZN5Waves5StateC2Ev:
  28              	.LFB285:
  29              		.file 1 "waves.hpp"
  30              		.loc 1 98 0
  31              		.cfi_startproc
  32              		@ args = 0, pretend = 0, frame = 0
  33              		@ frame_needed = 0, uses_anonymous_args = 0
  34              	.LVL0:
  35              	.LBB180:
  36              		.loc 1 99 0
  37 0000 124B     		ldr	r3, .L2
  38              		.loc 1 100 0
  39 0002 134A     		ldr	r2, .L2+4
  40              		.loc 1 99 0
  41 0004 1B68     		ldr	r3, [r3]
  42              		.loc 1 110 0
  43 0006 1268     		ldr	r2, [r2]
  44              	.LBE180:
  45              		.loc 1 98 0
  46 0008 10B5     		push	{r4, lr}
  47              		.cfi_def_cfa_offset 8
  48              		.cfi_offset 4, -8
  49              		.cfi_offset 14, -4
  50              	.LBB185:
  51              		.loc 1 110 0
  52 000a 0360     		str	r3, [r0]
  53 000c 8360     		str	r3, [r0, #8]
  54 000e 114B     		ldr	r3, .L2+8
  55 0010 4260     		str	r2, [r0, #4]
  56 0012 8361     		str	r3, [r0, #24]	@ float
  57 0014 C361     		str	r3, [r0, #28]	@ float
ARM GAS  /var/folders/dt/hjs72d_11kddbzhkd4h37c6c0000gn/T//ccz5ToXx.s 			page 2


  58 0016 4FF07E52 		mov	r2, #1065353216
  59 001a 0F4B     		ldr	r3, .L2+12
  60 001c 0362     		str	r3, [r0, #32]	@ float
  61 001e 0263     		str	r2, [r0, #48]	@ float
  62 0020 0023     		movs	r3, #0
  63 0022 4263     		str	r2, [r0, #52]	@ float
  64 0024 0022     		movs	r2, #0
  65 0026 4362     		str	r3, [r0, #36]	@ float
  66 0028 8362     		str	r3, [r0, #40]	@ float
  67 002a C362     		str	r3, [r0, #44]	@ float
  68 002c 80F83C20 		strb	r2, [r0, #60]
  69              	.LVL1:
  70              	.LBB181:
  71              	.LBB182:
  72              		.loc 1 118 0
  73 0030 C360     		str	r3, [r0, #12]	@ float
  74              		.loc 1 119 0
  75 0032 0361     		str	r3, [r0, #16]	@ float
  76              		.loc 1 120 0
  77 0034 4361     		str	r3, [r0, #20]	@ float
  78              	.LVL2:
  79              	.LBE182:
  80              	.LBE181:
  81              	.LBE185:
  82              		.loc 1 98 0
  83 0036 0446     		mov	r4, r0
  84              	.LBB186:
  85              	.LBB183:
  86              	.LBB184:
  87              		.file 2 "../../inc/osc_api.h"
  88              		.loc 2 781 0
  89 0038 FFF7FEFF 		bl	_osc_white
  90              	.LVL3:
  91              	.LBE184:
  92              	.LBE183:
  93              		.loc 1 113 0
  94 003c DFED077A 		vldr.32	s15, .L2+16
  95 0040 20EE270A 		vmul.f32	s0, s0, s15
  96              	.LBE186:
  97              		.loc 1 114 0
  98 0044 2046     		mov	r0, r4
  99              	.LBB187:
 100              		.loc 1 113 0
 101 0046 84ED0E0A 		vstr.32	s0, [r4, #56]
 102              	.LBE187:
 103              		.loc 1 114 0
 104 004a 10BD     		pop	{r4, pc}
 105              	.LVL4:
 106              	.L3:
 107              		.align	2
 108              	.L2:
 109 004c 00000000 		.word	wavesA
 110 0050 00000000 		.word	wavesD
 111 0054 C92F163C 		.word	1008086985
 112 0058 C92F963B 		.word	999698377
 113 005c 8AD08B35 		.word	898355338
 114              		.cfi_endproc
ARM GAS  /var/folders/dt/hjs72d_11kddbzhkd4h37c6c0000gn/T//ccz5ToXx.s 			page 3


 115              	.LFE285:
 116              		.size	_ZN5Waves5StateC2Ev, .-_ZN5Waves5StateC2Ev
 117              		.weak	_ZN5Waves5StateC1Ev
 118              		.thumb_set _ZN5Waves5StateC1Ev,_ZN5Waves5StateC2Ev
 119              		.text
 120              		.align	1
 121              		.global	_hook_init
 122              		.thumb
 123              		.thumb_func
 124              		.type	_hook_init, %function
 125              	_hook_init:
 126              	.LFB294:
 127              		.file 3 "waves.cpp"
 128              		.loc 3 47 0
 129              		.cfi_startproc
 130              		@ args = 0, pretend = 0, frame = 0
 131              		@ frame_needed = 0, uses_anonymous_args = 0
 132              		@ link register save eliminated.
 133              	.LVL5:
 134 0000 7047     		bx	lr
 135              		.cfi_endproc
 136              	.LFE294:
 137              		.size	_hook_init, .-_hook_init
 138              		.align	1
 139              		.global	_hook_cycle
 140              		.thumb
 141              		.thumb_func
 142              		.type	_hook_cycle, %function
 143              	_hook_cycle:
 144              	.LFB295:
 145              		.loc 3 55 0
 146              		.cfi_startproc
 147              		@ args = 0, pretend = 0, frame = 0
 148              		@ frame_needed = 0, uses_anonymous_args = 0
 149              	.LVL6:
 150              		.loc 3 55 0
 151 0002 F8B5     		push	{r3, r4, r5, r6, r7, lr}
 152              		.cfi_def_cfa_offset 24
 153              		.cfi_offset 3, -24
 154              		.cfi_offset 4, -20
 155              		.cfi_offset 5, -16
 156              		.cfi_offset 6, -12
 157              		.cfi_offset 7, -8
 158              		.cfi_offset 14, -4
 159              	.LBB267:
 160              		.loc 3 62 0
 161 0004 C14C     		ldr	r4, .L57
 162              		.loc 3 65 0
 163 0006 8688     		ldrh	r6, [r0, #4]
 164              	.LBB268:
 165              	.LBB269:
 166              	.LBB270:
 167              	.LBB271:
 168              		.loc 2 115 0
 169 0008 C14F     		ldr	r7, .L57+4
 170              	.LBE271:
 171              	.LBE270:
ARM GAS  /var/folders/dt/hjs72d_11kddbzhkd4h37c6c0000gn/T//ccz5ToXx.s 			page 4


 172              	.LBB277:
 173              	.LBB278:
 174              		.file 4 "../../inc/utils/float_math.h"
 175              		.loc 4 826 0
 176 000a DFEDC26A 		vldr.32	s13, .L57+8
 177              	.LBE278:
 178              	.LBE277:
 179              	.LBE269:
 180              	.LBE268:
 181              		.loc 3 63 0
 182 000e 0023     		movs	r3, #0
 183              	.LBE267:
 184              		.loc 3 55 0
 185 0010 0D46     		mov	r5, r1
 186              	.LBB344:
 187              		.loc 3 62 0
 188 0012 94F83C10 		ldrb	r1, [r4, #60]	@ zero_extendqisi2
 189              	.LVL7:
 190              		.loc 3 63 0
 191 0016 84F83C30 		strb	r3, [r4, #60]
 192              		.loc 3 65 0
 193 001a 3312     		asrs	r3, r6, #8
 194              	.LBB304:
 195              	.LBB300:
 196              	.LBB283:
 197              	.LBB272:
 198              		.loc 2 115 0
 199 001c 962B     		cmp	r3, #150
 200              	.LBE272:
 201              	.LBE283:
 202              	.LBE300:
 203              	.LBE304:
 204              		.loc 3 65 0
 205 001e F6B2     		uxtb	r6, r6
 206 0020 07EE906A 		vmov	s15, r6	@ int
 207              	.LVL8:
 208              	.LBB305:
 209              	.LBB301:
 210              	.LBB284:
 211              	.LBB273:
 212              		.loc 2 115 0
 213 0024 D8BF     		it	le
 214 0026 1E46     		movle	r6, r3
 215              	.LVL9:
 216              	.LBE273:
 217              	.LBE284:
 218              		.loc 2 126 0
 219 0028 03F10103 		add	r3, r3, #1
 220              	.LVL10:
 221 002c DBB2     		uxtb	r3, r3
 222              	.LVL11:
 223              	.LBB285:
 224              	.LBB274:
 225              		.loc 2 115 0
 226 002e C8BF     		it	gt
 227 0030 9726     		movgt	r6, #151
 228              	.LVL12:
ARM GAS  /var/folders/dt/hjs72d_11kddbzhkd4h37c6c0000gn/T//ccz5ToXx.s 			page 5


 229              	.LBE274:
 230              	.LBE285:
 231              	.LBB286:
 232              	.LBB287:
 233 0032 962B     		cmp	r3, #150
 234 0034 88BF     		it	hi
 235 0036 9723     		movhi	r3, #151
 236              	.LBE287:
 237              	.LBE286:
 238              	.LBB289:
 239              	.LBB279:
 240              		.loc 4 826 0
 241 0038 F8EEE77A 		vcvt.f32.s32	s15, s15
 242              	.LVL13:
 243              	.LBE279:
 244              	.LBE289:
 245              	.LBB290:
 246              	.LBB275:
 247              		.loc 2 115 0
 248 003c 07EB8606 		add	r6, r7, r6, lsl #2
 249              	.LBE275:
 250              	.LBE290:
 251              	.LBB291:
 252              	.LBB288:
 253 0040 07EB8303 		add	r3, r7, r3, lsl #2
 254              	.LBE288:
 255              	.LBE291:
 256              	.LBB292:
 257              	.LBB276:
 258 0044 96ED007A 		vldr.32	s14, [r6]
 259              	.LVL14:
 260              	.LBE276:
 261              	.LBE292:
 262              	.LBB293:
 263              	.LBB280:
 264              		.loc 4 826 0
 265 0048 67EEA67A 		vmul.f32	s15, s15, s13
 266 004c D3ED006A 		vldr.32	s13, [r3]
 267 0050 76EEC76A 		vsub.f32	s13, s13, s14
 268              	.LBE280:
 269              	.LBE293:
 270              	.LBE301:
 271              	.LBE305:
 272              	.LBE344:
 273              		.loc 3 55 0
 274 0054 2DED0E8B 		vpush.64	{d8, d9, d10, d11, d12, d13, d14}
 275              		.cfi_def_cfa_offset 80
 276              		.cfi_offset 80, -80
 277              		.cfi_offset 81, -76
 278              		.cfi_offset 82, -72
 279              		.cfi_offset 83, -68
 280              		.cfi_offset 84, -64
 281              		.cfi_offset 85, -60
 282              		.cfi_offset 86, -56
 283              		.cfi_offset 87, -52
 284              		.cfi_offset 88, -48
 285              		.cfi_offset 89, -44
ARM GAS  /var/folders/dt/hjs72d_11kddbzhkd4h37c6c0000gn/T//ccz5ToXx.s 			page 6


 286              		.cfi_offset 90, -40
 287              		.cfi_offset 91, -36
 288              		.cfi_offset 92, -32
 289              		.cfi_offset 93, -28
 290              	.LBB345:
 291              	.LBB306:
 292              	.LBB302:
 293              	.LBB294:
 294              	.LBB281:
 295              		.loc 4 826 0
 296 0058 A7EEA67A 		vfma.f32	s14, s15, s13
 297              	.LBE281:
 298              	.LBE294:
 299              	.LBE302:
 300              	.LBE306:
 301              	.LBB307:
 302              	.LBB308:
 303              		.loc 1 137 0
 304 005c DFEDAE6A 		vldr.32	s13, .L57+12
 305              	.LBE308:
 306              	.LBE307:
 307              	.LBB311:
 308              	.LBB303:
 309              	.LBB295:
 310              	.LBB282:
 311              		.loc 4 826 0
 312 0060 F0EE477A 		vmov.f32	s15, s14
 313              	.LVL15:
 314              	.LBE282:
 315              	.LBE295:
 316              	.LBB296:
 317              	.LBB297:
 318              	.LBB298:
 319              	.LBB299:
 320              		.loc 4 193 0
 321 0064 9FEDAD7A 		vldr.32	s14, .L57+16
 322              	.LVL16:
 323 0068 F4EEC77A 		vcmpe.f32	s15, s14
 324 006c F1EE10FA 		vmrs	APSR_nzcv, FPSCR
 325 0070 A8BF     		it	ge
 326 0072 F0EE477A 		vmovge.f32	s15, s14
 327              	.LVL17:
 328              	.LBE299:
 329              	.LBE298:
 330              	.LBE297:
 331              	.LBE296:
 332              	.LBE303:
 333              	.LBE311:
 334              	.LBB312:
 335              	.LBB309:
 336              		.loc 1 137 0
 337 0076 94ED0E7A 		vldr.32	s14, [r4, #56]
 338 007a A7EEA67A 		vfma.f32	s14, s15, s13
 339              	.LVL18:
 340              	.LBE309:
 341              	.LBE312:
 342              	.LBB313:
ARM GAS  /var/folders/dt/hjs72d_11kddbzhkd4h37c6c0000gn/T//ccz5ToXx.s 			page 7


 343              	.LBB314:
 344              		.loc 1 147 0
 345 007e 8E07     		lsls	r6, r1, #30
 346              	.LBE314:
 347              	.LBE313:
 348              	.LBB323:
 349              	.LBB310:
 350              		.loc 1 138 0
 351 0080 D4ED147A 		vldr.32	s15, [r4, #80]
 352              	.LVL19:
 353              		.loc 1 141 0
 354 0084 DFEDA66A 		vldr.32	s13, .L57+20
 355              		.loc 1 139 0
 356 0088 84ED067A 		vstr.32	s14, [r4, #24]
 357              		.loc 1 141 0
 358 008c B0EE476A 		vmov.f32	s12, s14
 359 0090 A7EEA66A 		vfma.f32	s12, s15, s13
 360              		.loc 1 143 0
 361 0094 DFEDA36A 		vldr.32	s13, .L57+24
 362              		.loc 1 141 0
 363 0098 84ED076A 		vstr.32	s12, [r4, #28]
 364              		.loc 1 143 0
 365 009c 67EEA67A 		vmul.f32	s15, s15, s13
 366              	.LVL20:
 367 00a0 F6EE006A 		vmov.f32	s13, #5.0e-1
 368 00a4 E7EE267A 		vfma.f32	s15, s14, s13
 369 00a8 C4ED087A 		vstr.32	s15, [r4, #32]
 370              	.LVL21:
 371              	.LBE310:
 372              	.LBE323:
 373              	.LBB324:
 374              	.LBB316:
 375              		.loc 1 147 0
 376 00ac 11D5     		bpl	.L9
 377              	.LBB315:
 378              		.loc 1 152 0
 379 00ae 94F85430 		ldrb	r3, [r4, #84]	@ zero_extendqisi2
 380              	.LVL22:
 381              		.loc 1 155 0
 382 00b2 0F2B     		cmp	r3, #15
 383 00b4 09D9     		bls	.L29
 384              		.loc 1 158 0
 385 00b6 1F2B     		cmp	r3, #31
 386              	.LVL23:
 387              		.loc 1 160 0
 388 00b8 97BF     		itett	ls
 389 00ba 103B     		subls	r3, r3, #16
 390              	.LVL24:
 391              		.loc 1 164 0
 392 00bc 203B     		subhi	r3, r3, #32
 393              		.loc 1 160 0
 394 00be DBB2     		uxtbls	r3, r3
 395              	.LVL25:
 396              		.loc 1 159 0
 397 00c0 994E     		ldrls	r6, .L57+28
 398              	.LVL26:
 399              		.loc 1 163 0
ARM GAS  /var/folders/dt/hjs72d_11kddbzhkd4h37c6c0000gn/T//ccz5ToXx.s 			page 8


 400 00c2 84BF     		itt	hi
 401 00c4 994E     		ldrhi	r6, .L57+32
 402              		.loc 1 164 0
 403 00c6 DBB2     		uxtbhi	r3, r3
 404              	.LVL27:
 405 00c8 00E0     		b	.L10
 406              	.LVL28:
 407              	.L29:
 408              		.loc 1 156 0
 409 00ca 994E     		ldr	r6, .L57+36
 410              	.L10:
 411              	.LVL29:
 412              		.loc 1 166 0
 413 00cc 56F82330 		ldr	r3, [r6, r3, lsl #2]
 414              	.LVL30:
 415 00d0 2360     		str	r3, [r4]
 416              	.LVL31:
 417              	.L9:
 418              	.LBE315:
 419              	.LBE316:
 420              	.LBB317:
 421              		.loc 1 168 0
 422 00d2 4B07     		lsls	r3, r1, #29
 423 00d4 11D5     		bpl	.L12
 424              	.LBB318:
 425              		.loc 1 173 0
 426 00d6 94F85530 		ldrb	r3, [r4, #85]	@ zero_extendqisi2
 427              	.LVL32:
 428              		.loc 1 176 0
 429 00da 0C2B     		cmp	r3, #12
 430 00dc 09D9     		bls	.L30
 431              		.loc 1 179 0
 432 00de 1B2B     		cmp	r3, #27
 433              	.LVL33:
 434              		.loc 1 181 0
 435 00e0 97BF     		itett	ls
 436 00e2 0D3B     		subls	r3, r3, #13
 437              	.LVL34:
 438              		.loc 1 185 0
 439 00e4 1C3B     		subhi	r3, r3, #28
 440              		.loc 1 181 0
 441 00e6 DBB2     		uxtbls	r3, r3
 442              	.LVL35:
 443              		.loc 1 180 0
 444 00e8 924E     		ldrls	r6, .L57+40
 445              	.LVL36:
 446              		.loc 1 184 0
 447 00ea 84BF     		itt	hi
 448 00ec 924E     		ldrhi	r6, .L57+44
 449              		.loc 1 185 0
 450 00ee DBB2     		uxtbhi	r3, r3
 451              	.LVL37:
 452 00f0 00E0     		b	.L13
 453              	.LVL38:
 454              	.L30:
 455              		.loc 1 177 0
 456 00f2 924E     		ldr	r6, .L57+48
ARM GAS  /var/folders/dt/hjs72d_11kddbzhkd4h37c6c0000gn/T//ccz5ToXx.s 			page 9


 457              	.L13:
 458              	.LVL39:
 459              		.loc 1 188 0
 460 00f4 56F82330 		ldr	r3, [r6, r3, lsl #2]
 461              	.LVL40:
 462 00f8 6360     		str	r3, [r4, #4]
 463              	.LVL41:
 464              	.L12:
 465              	.LBE318:
 466              	.LBE317:
 467              	.LBB319:
 468              		.loc 1 190 0
 469 00fa 0F07     		lsls	r7, r1, #28
 470              	.LVL42:
 471              	.LBB320:
 472              		.loc 1 192 0
 473 00fc 44BF     		itt	mi
 474 00fe 8C4B     		ldrmi	r3, .L57+36
 475 0100 94F85660 		ldrbmi	r6, [r4, #86]	@ zero_extendqisi2
 476              	.LBE320:
 477              	.LBE319:
 478              	.LBE324:
 479              		.loc 3 72 0
 480 0104 90ED007A 		vldr.32	s14, [r0]	@ int
 481              	.LBB325:
 482              	.LBB322:
 483              	.LBB321:
 484              		.loc 1 192 0
 485 0108 44BF     		itt	mi
 486 010a 53F82630 		ldrmi	r3, [r3, r6, lsl #2]
 487 010e A360     		strmi	r3, [r4, #8]
 488              	.LVL43:
 489              	.LBE321:
 490              	.LBE322:
 491              	.LBE325:
 492              		.loc 3 69 0
 493 0110 4E06     		lsls	r6, r1, #25
 494              	.LVL44:
 495              	.LBB326:
 496              	.LBB327:
 497              		.loc 1 118 0
 498 0112 48BF     		it	mi
 499 0114 0023     		movmi	r3, #0
 500              	.LBE327:
 501              	.LBE326:
 502              		.loc 3 72 0
 503 0116 BAEEE07A 		vcvt.f32.s32	s14, s14, #31
 504              	.LBB329:
 505              	.LBB328:
 506              		.loc 1 118 0
 507 011a 42BF     		ittt	mi
 508 011c E360     		strmi	r3, [r4, #12]	@ float
 509              		.loc 1 119 0
 510 011e 2361     		strmi	r3, [r4, #16]	@ float
 511              		.loc 1 120 0
 512 0120 6361     		strmi	r3, [r4, #20]	@ float
 513              	.LBE328:
ARM GAS  /var/folders/dt/hjs72d_11kddbzhkd4h37c6c0000gn/T//ccz5ToXx.s 			page 10


 514              	.LBE329:
 515              		.loc 3 74 0
 516 0122 8906     		lsls	r1, r1, #26
 517              	.LVL45:
 518              		.loc 3 72 0
 519 0124 794B     		ldr	r3, .L57
 520 0126 84ED097A 		vstr.32	s14, [r4, #36]
 521              		.loc 3 74 0
 522 012a 2AD5     		bpl	.L17
 523              		.loc 3 75 0
 524 012c D3ED127A 		vldr.32	s15, [r3, #72]
 525 0130 DFED836A 		vldr.32	s13, .L57+52
 526              	.LBB330:
 527              	.LBB331:
 528              		.loc 2 745 0
 529 0134 8349     		ldr	r1, .L57+56
 530              	.LBE331:
 531              	.LBE330:
 532              		.loc 3 75 0
 533 0136 67EEA66A 		vmul.f32	s13, s15, s13
 534 013a C3ED0B6A 		vstr.32	s13, [r3, #44]
 535              	.LVL46:
 536              	.LBB342:
 537              	.LBB340:
 538              		.loc 2 743 0
 539 013e DFED826A 		vldr.32	s13, .L57+60
 540 0142 67EEA67A 		vmul.f32	s15, s15, s13
 541              	.LVL47:
 542              		.loc 2 744 0
 543 0146 FCEEE76A 		vcvt.u32.f32	s13, s15
 544 014a 16EE900A 		vmov	r0, s13	@ int
 545              	.LVL48:
 546              	.LBB332:
 547              	.LBB333:
 548              		.loc 4 826 0
 549 014e 06EE100A 		vmov	s12, r0	@ int
 550 0152 B8EE466A 		vcvt.f32.u32	s12, s12
 551              	.LBE333:
 552              	.LBE332:
 553              		.loc 2 745 0
 554 0156 01EB8006 		add	r6, r1, r0, lsl #2
 555              	.LBB337:
 556              	.LBB334:
 557              		.loc 4 826 0
 558 015a 77EEC67A 		vsub.f32	s15, s15, s12
 559              	.LVL49:
 560              	.LBE334:
 561              	.LBE337:
 562              		.loc 2 745 0
 563 015e D6ED006A 		vldr.32	s13, [r6]
 564              	.LVL50:
 565              	.LBB338:
 566              	.LBB335:
 567              		.loc 4 826 0
 568 0162 96ED016A 		vldr.32	s12, [r6, #4]
 569 0166 36EE666A 		vsub.f32	s12, s12, s13
 570 016a E7EE866A 		vfma.f32	s13, s15, s12
ARM GAS  /var/folders/dt/hjs72d_11kddbzhkd4h37c6c0000gn/T//ccz5ToXx.s 			page 11


 571              	.LVL51:
 572              	.LBE335:
 573              	.LBE338:
 574              	.LBE340:
 575              	.LBE342:
 576              		.loc 3 77 0
 577 016e B7EE006A 		vmov.f32	s12, #1.0e+0
 578              	.LBB343:
 579              	.LBB341:
 580              	.LBB339:
 581              	.LBB336:
 582              		.loc 4 826 0
 583 0172 F0EE667A 		vmov.f32	s15, s13
 584              	.LVL52:
 585              	.LBE336:
 586              	.LBE339:
 587              	.LBE341:
 588              	.LBE343:
 589              		.loc 3 76 0
 590 0176 C3ED0C6A 		vstr.32	s13, [r3, #48]
 591              		.loc 3 77 0
 592 017a C6EE276A 		vdiv.f32	s13, s12, s15
 593 017e C3ED0D6A 		vstr.32	s13, [r3, #52]
 594              	.L17:
 595              	.LBE345:
 596              		.loc 3 86 0
 597 0182 94ED0AAA 		vldr.32	s20, [r4, #40]
 598              		.loc 3 82 0
 599 0186 D4ED039A 		vldr.32	s19, [r4, #12]
 600              	.LVL53:
 601              		.loc 3 83 0
 602 018a 94ED049A 		vldr.32	s18, [r4, #16]
 603              	.LVL54:
 604              		.loc 3 84 0
 605 018e D4ED058A 		vldr.32	s17, [r4, #20]
 606              	.LVL55:
 607              		.loc 3 94 0
 608 0192 D4ED10AA 		vldr.32	s21, [r4, #64]
 609              		.loc 3 95 0
 610 0196 94ED11BA 		vldr.32	s22, [r4, #68]
 611              	.LBB346:
 612              	.LBB347:
 613              	.LBB348:
 614              	.LBB349:
 615              	.LBB350:
 616              	.LBB351:
 617              	.LBB352:
 618              		.loc 4 193 0
 619 019a DFED6CBA 		vldr.32	s23, .L57+64
 620              	.LBE352:
 621              	.LBE351:
 622              	.LBB355:
 623              	.LBB356:
 624 019e 9FED6CCA 		vldr.32	s24, .L57+68
 625              	.LBE356:
 626              	.LBE355:
 627              	.LBE350:
ARM GAS  /var/folders/dt/hjs72d_11kddbzhkd4h37c6c0000gn/T//ccz5ToXx.s 			page 12


 628              	.LBE349:
 629              	.LBE348:
 630              	.LBE347:
 631              	.LBE346:
 632              		.loc 3 87 0
 633 01a2 07EE902A 		vmov	s15, r2	@ int
 634 01a6 37EE4A7A 		vsub.f32	s14, s14, s20
 635 01aa F8EE677A 		vcvt.f32.u32	s15, s15
 636              		.loc 3 101 0
 637 01ae 05EB8206 		add	r6, r5, r2, lsl #2
 638              		.loc 3 87 0
 639 01b2 C7EE27CA 		vdiv.f32	s25, s14, s15
 640              	.LVL56:
 641              	.L25:
 642              	.LBB470:
 643              		.loc 3 103 0
 644 01b6 B542     		cmp	r5, r6
 645 01b8 00F04A81 		beq	.L18
 646              	.LBB469:
 647              		.loc 3 107 0
 648 01bc 2268     		ldr	r2, [r4]
 649              		.loc 3 108 0
 650 01be 6068     		ldr	r0, [r4, #4]
 651              		.loc 3 105 0
 652 01c0 D4ED136A 		vldr.32	s13, [r4, #76]
 653              	.LBB377:
 654              	.LBB378:
 655              		.loc 2 558 0
 656 01c4 9FED607A 		vldr.32	s14, .L57+60
 657              	.LBE378:
 658              	.LBE377:
 659              		.loc 3 105 0
 660 01c8 7AEE266A 		vadd.f32	s13, s20, s13
 661              	.LVL57:
 662              	.LBB387:
 663              	.LBB388:
 664              		.loc 2 558 0
 665 01cc BCEEC96A 		vcvt.u32.f32	s12, s18
 666              	.LBE388:
 667              	.LBE387:
 668              	.LBB396:
 669              	.LBB372:
 670              	.LBB367:
 671              	.LBB361:
 672              	.LBB353:
 673              		.loc 4 193 0
 674 01d0 76EEEB7A 		vsub.f32	s15, s13, s23
 675              	.LBE353:
 676              	.LBE361:
 677              	.LBE367:
 678              	.LBE372:
 679              	.LBE396:
 680              	.LBB397:
 681              	.LBB389:
 682              		.loc 2 558 0
 683 01d4 B8EE466A 		vcvt.f32.u32	s12, s12
 684              	.LBE389:
ARM GAS  /var/folders/dt/hjs72d_11kddbzhkd4h37c6c0000gn/T//ccz5ToXx.s 			page 13


 685              	.LBE397:
 686              	.LBB398:
 687              	.LBB373:
 688              	.LBB368:
 689              	.LBB362:
 690              	.LBB354:
 691              		.loc 4 193 0
 692 01d8 F5EEC07A 		vcmpe.f32	s15, #0
 693 01dc F1EE10FA 		vmrs	APSR_nzcv, FPSCR
 694 01e0 B8BF     		it	lt
 695 01e2 F0EE6B6A 		vmovlt.f32	s13, s23
 696              	.LVL58:
 697              	.LBE354:
 698              	.LBE362:
 699              	.LBB363:
 700              	.LBB357:
 701 01e6 76EECC7A 		vsub.f32	s15, s13, s24
 702              	.LBE357:
 703              	.LBE363:
 704              	.LBE368:
 705              	.LBE373:
 706              	.LBE398:
 707              	.LBB399:
 708              	.LBB390:
 709              		.loc 2 558 0
 710 01ea 39EE466A 		vsub.f32	s12, s18, s12
 711              	.LBE390:
 712              	.LBE399:
 713              	.LBB400:
 714              	.LBB374:
 715              	.LBB369:
 716              	.LBB364:
 717              	.LBB358:
 718              		.loc 4 193 0
 719 01ee F5EE407A 		vcmp.f32	s15, #0
 720              	.LBE358:
 721              	.LBE364:
 722              	.LBE369:
 723              	.LBE374:
 724              	.LBE400:
 725              	.LBB401:
 726              	.LBB379:
 727              		.loc 2 558 0
 728 01f2 FCEEE97A 		vcvt.u32.f32	s15, s19
 729              	.LBE379:
 730              	.LBE401:
 731              	.LBB402:
 732              	.LBB391:
 733 01f6 26EE076A 		vmul.f32	s12, s12, s14
 734              	.LBE391:
 735              	.LBE402:
 736              	.LBB403:
 737              	.LBB380:
 738 01fa F8EE677A 		vcvt.f32.u32	s15, s15
 739              	.LBE380:
 740              	.LBE403:
 741              	.LBB404:
ARM GAS  /var/folders/dt/hjs72d_11kddbzhkd4h37c6c0000gn/T//ccz5ToXx.s 			page 14


 742              	.LBB392:
 743              		.loc 2 559 0
 744 01fe FCEEC63A 		vcvt.u32.f32	s7, s12
 745              	.LBE392:
 746              	.LBE404:
 747              	.LBB405:
 748              	.LBB381:
 749              		.loc 2 558 0
 750 0202 79EEE77A 		vsub.f32	s15, s19, s15
 751              	.LBE381:
 752              	.LBE405:
 753              	.LBB406:
 754              	.LBB375:
 755              	.LBB370:
 756              	.LBB365:
 757              	.LBB359:
 758              		.loc 4 193 0
 759 0206 F1EE10FA 		vmrs	APSR_nzcv, FPSCR
 760              	.LBE359:
 761              	.LBE365:
 762              	.LBE370:
 763              	.LBE375:
 764              	.LBE406:
 765              	.LBB407:
 766              	.LBB382:
 767              		.loc 2 558 0
 768 020a 67EE877A 		vmul.f32	s15, s15, s14
 769              	.LBE382:
 770              	.LBE407:
 771              		.loc 3 108 0
 772 020e F7EE005A 		vmov.f32	s11, #1.0e+0
 773              	.LBB408:
 774              	.LBB383:
 775              		.loc 2 559 0
 776 0212 BCEEE74A 		vcvt.u32.f32	s8, s15
 777              	.LBE383:
 778              	.LBE408:
 779              	.LBB409:
 780              	.LBB376:
 781              	.LBB371:
 782              	.LBB366:
 783              	.LBB360:
 784              		.loc 4 193 0
 785 0216 A8BF     		it	ge
 786 0218 F0EE4C6A 		vmovge.f32	s13, s24
 787              	.LVL59:
 788              	.LBE360:
 789              	.LBE366:
 790              	.LBE371:
 791              	.LBE376:
 792              	.LBE409:
 793              	.LBB410:
 794              	.LBB384:
 795              		.loc 2 559 0
 796 021c 14EE103A 		vmov	r3, s8	@ int
 797 0220 03F07F03 		and	r3, r3, #127
 798              	.LVL60:
ARM GAS  /var/folders/dt/hjs72d_11kddbzhkd4h37c6c0000gn/T//ccz5ToXx.s 			page 15


 799              		.loc 2 561 0
 800 0224 02EB8301 		add	r1, r2, r3, lsl #2
 801 0228 D1ED004A 		vldr.32	s9, [r1]
 802              	.LVL61:
 803              	.LBE384:
 804              	.LBE410:
 805              	.LBB411:
 806              	.LBB393:
 807              		.loc 2 559 0
 808 022c 13EE901A 		vmov	r1, s7	@ int
 809 0230 01F07F01 		and	r1, r1, #127
 810              	.LVL62:
 811              		.loc 2 561 0
 812 0234 00EB8107 		add	r7, r0, r1, lsl #2
 813 0238 0131     		adds	r1, r1, #1
 814              	.LVL63:
 815              	.LBE393:
 816              	.LBE411:
 817              		.loc 3 108 0
 818 023a F8EE633A 		vcvt.f32.u32	s7, s7
 819              	.LBB412:
 820              	.LBB394:
 821              		.loc 2 561 0
 822 023e 01F07F01 		and	r1, r1, #127
 823              	.LVL64:
 824 0242 00EB8101 		add	r1, r0, r1, lsl #2
 825              	.LVL65:
 826              	.LBE394:
 827              	.LBE412:
 828              		.loc 3 108 0
 829 0246 36EE636A 		vsub.f32	s12, s12, s7
 830              	.LVL66:
 831              	.LBB413:
 832              	.LBB395:
 833              		.loc 2 561 0
 834 024a 97ED005A 		vldr.32	s10, [r7]
 835              	.LVL67:
 836              	.LBE395:
 837              	.LBE413:
 838              		.loc 3 108 0
 839 024e D1ED003A 		vldr.32	s7, [r1]
 840              	.LBB414:
 841              	.LBB385:
 842              		.loc 2 561 0
 843 0252 0133     		adds	r3, r3, #1
 844              	.LVL68:
 845              	.LBE385:
 846              	.LBE414:
 847              		.loc 3 108 0
 848 0254 73EEC53A 		vsub.f32	s7, s7, s10
 849              	.LBB415:
 850              	.LBB386:
 851              		.loc 2 561 0
 852 0258 03F07F03 		and	r3, r3, #127
 853              	.LVL69:
 854 025c 02EB8303 		add	r3, r2, r3, lsl #2
 855              	.LBE386:
ARM GAS  /var/folders/dt/hjs72d_11kddbzhkd4h37c6c0000gn/T//ccz5ToXx.s 			page 16


 856              	.LBE415:
 857              		.loc 3 108 0
 858 0260 A6EE235A 		vfma.f32	s10, s12, s7
 859              		.loc 3 110 0
 860 0264 A268     		ldr	r2, [r4, #8]
 861              	.LVL70:
 862              		.loc 3 108 0
 863 0266 93ED006A 		vldr.32	s12, [r3]
 864 026a B8EE444A 		vcvt.f32.u32	s8, s8
 865              	.LVL71:
 866 026e 36EE646A 		vsub.f32	s12, s12, s9
 867 0272 77EEC47A 		vsub.f32	s15, s15, s8
 868              	.LVL72:
 869 0276 35EEE63A 		vsub.f32	s6, s11, s13
 870 027a E7EE864A 		vfma.f32	s9, s15, s12
 871              	.LVL73:
 872              	.LBB416:
 873              	.LBB417:
 874              		.loc 2 558 0
 875 027e FCEEE87A 		vcvt.u32.f32	s15, s17
 876              	.LBE417:
 877              	.LBE416:
 878              		.loc 3 108 0
 879 0282 65EE266A 		vmul.f32	s13, s10, s13
 880              	.LVL74:
 881              	.LBB426:
 882              	.LBB424:
 883              		.loc 2 558 0
 884 0286 F8EE677A 		vcvt.f32.u32	s15, s15
 885              	.LBE424:
 886              	.LBE426:
 887              		.loc 3 108 0
 888 028a E3EE246A 		vfma.f32	s13, s6, s9
 889              	.LVL75:
 890              	.LBB427:
 891              	.LBB425:
 892              		.loc 2 558 0
 893 028e 78EEE77A 		vsub.f32	s15, s17, s15
 894 0292 B0EE65DA 		vmov.f32	s26, s11
 895 0296 27EE877A 		vmul.f32	s14, s15, s14
 896              	.LVL76:
 897 029a FFEE00DA 		vmov.f32	s27, #-1.0e+0
 898              		.loc 2 559 0
 899 029e BCEEC76A 		vcvt.u32.f32	s12, s14
 900 02a2 16EE103A 		vmov	r3, s12	@ int
 901 02a6 03F07F03 		and	r3, r3, #127
 902              	.LVL77:
 903              		.loc 2 561 0
 904 02aa 02EB8301 		add	r1, r2, r3, lsl #2
 905 02ae 0133     		adds	r3, r3, #1
 906              	.LVL78:
 907              	.LBB418:
 908              	.LBB419:
 909              		.loc 4 826 0
 910 02b0 B8EE466A 		vcvt.f32.u32	s12, s12
 911              	.LBE419:
 912              	.LBE418:
ARM GAS  /var/folders/dt/hjs72d_11kddbzhkd4h37c6c0000gn/T//ccz5ToXx.s 			page 17


 913              		.loc 2 561 0
 914 02b4 03F07F03 		and	r3, r3, #127
 915              	.LVL79:
 916 02b8 02EB8303 		add	r3, r2, r3, lsl #2
 917              	.LVL80:
 918              	.LBB422:
 919              	.LBB420:
 920              		.loc 4 826 0
 921 02bc 37EE467A 		vsub.f32	s14, s14, s12
 922              	.LVL81:
 923              	.LBE420:
 924              	.LBE422:
 925              		.loc 2 561 0
 926 02c0 D1ED007A 		vldr.32	s15, [r1]
 927              	.LVL82:
 928              	.LBB423:
 929              	.LBB421:
 930              		.loc 4 826 0
 931 02c4 93ED006A 		vldr.32	s12, [r3]
 932 02c8 36EE676A 		vsub.f32	s12, s12, s15
 933 02cc E7EE067A 		vfma.f32	s15, s14, s12
 934              	.LVL83:
 935              	.LBE421:
 936              	.LBE423:
 937              	.LBE425:
 938              	.LBE427:
 939              		.loc 3 111 0
 940 02d0 35EEEA6A 		vsub.f32	s12, s11, s21
 941 02d4 2AEEA77A 		vmul.f32	s14, s21, s15
 942 02d8 A6EE867A 		vfma.f32	s14, s13, s12
 943              	.LVL84:
 944              		.loc 3 112 0
 945 02dc 75EECB6A 		vsub.f32	s13, s11, s22
 946 02e0 67EE277A 		vmul.f32	s15, s14, s15
 947 02e4 67EE8B7A 		vmul.f32	s15, s15, s22
 948 02e8 E7EE267A 		vfma.f32	s15, s14, s13
 949              	.LVL85:
 950              	.LBB428:
 951              	.LBB429:
 952              	.LBB430:
 953              	.LBB431:
 954              	.LBB432:
 955              		.loc 4 193 0
 956 02ec 37EEA57A 		vadd.f32	s14, s15, s11
 957              	.LVL86:
 958 02f0 B5EEC07A 		vcmpe.f32	s14, #0
 959 02f4 F1EE10FA 		vmrs	APSR_nzcv, FPSCR
 960 02f8 2CDB     		blt	.L54
 961              	.LVL87:
 962 02fa F4EEE57A 		vcmpe.f32	s15, s11
 963 02fe F1EE10FA 		vmrs	APSR_nzcv, FPSCR
 964 0302 A8BF     		it	ge
 965 0304 F0EE657A 		vmovge.f32	s15, s11
 966              	.LVL88:
 967 0308 26E0     		b	.L21
 968              	.L58:
 969 030a 00BF     		.align	2
ARM GAS  /var/folders/dt/hjs72d_11kddbzhkd4h37c6c0000gn/T//ccz5ToXx.s 			page 18


 970              	.L57:
 971 030c 00000000 		.word	.LANCHOR0
 972 0310 00000000 		.word	midi_to_hz_lut_f
 973 0314 8180803B 		.word	998277249
 974 0318 3EC3AE37 		.word	934200126
 975 031c 49FFB846 		.word	1186529097
 976 0320 3EC3AE36 		.word	917422910
 977 0324 17B75136 		.word	911324951
 978 0328 00000000 		.word	wavesB
 979 032c 00000000 		.word	wavesC
 980 0330 00000000 		.word	wavesA
 981 0334 00000000 		.word	wavesE
 982 0338 00000000 		.word	wavesF
 983 033c 00000000 		.word	wavesD
 984 0340 77CCAB32 		.word	850119799
 985 0344 00000000 		.word	bitres_lut_f
 986 0348 00000043 		.word	1124073472
 987 034c 0AD7A33B 		.word	1000593162
 988 0350 52B87E3F 		.word	1065269330
 989              	.LVL89:
 990              	.L54:
 991 0354 F0EE6D7A 		vmov.f32	s15, s27
 992              	.LVL90:
 993              	.L21:
 994              	.LBE432:
 995              	.LBE431:
 996              	.LBE430:
 997              	.LBE429:
 998              	.LBE428:
 999              	.LBB433:
 1000              	.LBB434:
 1001              		.file 5 "../../inc/dsp/biquad.hpp"
 1002              		.loc 5 385 0
 1003 0358 94ED167A 		vldr.32	s14, [r4, #88]
 1004 035c 94ED1B8A 		vldr.32	s16, [r4, #108]
 1005              		.loc 5 387 0
 1006 0360 D4ED176A 		vldr.32	s13, [r4, #92]
 1007              	.LBE434:
 1008              	.LBE433:
 1009              		.loc 3 116 0
 1010 0364 94ED0BEA 		vldr.32	s28, [r4, #44]
 1011              	.LBB436:
 1012              	.LBB435:
 1013              		.loc 5 385 0
 1014 0368 A7EE278A 		vfma.f32	s16, s14, s15
 1015              	.LVL91:
 1016              		.loc 5 387 0
 1017 036c 94ED197A 		vldr.32	s14, [r4, #100]
 1018 0370 27EE487A 		vnmul.f32	s14, s14, s16
 1019 0374 A6EEA77A 		vfma.f32	s14, s13, s15
 1020 0378 84ED1B7A 		vstr.32	s14, [r4, #108]
 1021              	.LVL92:
 1022              	.LBE435:
 1023              	.LBE436:
 1024              	.LBB437:
 1025              	.LBB438:
 1026              		.loc 2 781 0
ARM GAS  /var/folders/dt/hjs72d_11kddbzhkd4h37c6c0000gn/T//ccz5ToXx.s 			page 19


 1027 037c FFF7FEFF 		bl	_osc_white
 1028              	.LVL93:
 1029              	.LBE438:
 1030              	.LBE437:
 1031              		.loc 3 117 0
 1032 0380 AEEE008A 		vfma.f32	s16, s28, s0
 1033              	.LVL94:
 1034 0384 D4ED0C7A 		vldr.32	s15, [r4, #48]
 1035              	.LBB439:
 1036              	.LBB440:
 1037              		.loc 5 385 0
 1038 0388 94ED1D7A 		vldr.32	s14, [r4, #116]
 1039 038c D4ED226A 		vldr.32	s13, [r4, #136]
 1040              		.loc 5 387 0
 1041 0390 94ED1E6A 		vldr.32	s12, [r4, #120]
 1042              	.LBE440:
 1043              	.LBE439:
 1044              		.loc 3 117 0
 1045 0394 28EE278A 		vmul.f32	s16, s16, s15
 1046              	.LVL95:
 1047              	.LBB444:
 1048              	.LBB445:
 1049              	.LBB446:
 1050              	.LBB447:
 1051              		.loc 4 276 0
 1052 0398 18EE103A 		vmov	r3, s16	@ int
 1053 039c 03F00043 		and	r3, r3, #-2147483648
 1054 03a0 43F07C53 		orr	r3, r3, #1056964608
 1055              	.LBE447:
 1056              	.LBE446:
 1057              	.LBE445:
 1058              	.LBE444:
 1059              		.loc 3 117 0
 1060 03a4 07EE903A 		vmov	s15, r3
 1061 03a8 38EE278A 		vadd.f32	s16, s16, s15
 1062 03ac D4ED0D7A 		vldr.32	s15, [r4, #52]
 1063 03b0 BDEEC88A 		vcvt.s32.f32	s16, s16
 1064 03b4 B8EEC88A 		vcvt.f32.s32	s16, s16
 1065 03b8 68EE277A 		vmul.f32	s15, s16, s15
 1066              	.LVL96:
 1067              	.LBB448:
 1068              	.LBB441:
 1069              		.loc 5 385 0
 1070 03bc E7EE876A 		vfma.f32	s13, s15, s14
 1071              	.LVL97:
 1072              		.loc 5 387 0
 1073 03c0 94ED207A 		vldr.32	s14, [r4, #128]
 1074 03c4 27EE667A 		vnmul.f32	s14, s14, s13
 1075              	.LBE441:
 1076              	.LBE448:
 1077              	.LBB449:
 1078              	.LBB450:
 1079              	.LBB451:
 1080              	.LBB452:
 1081              	.LBB453:
 1082              	.LBB454:
 1083              		.loc 4 193 0
ARM GAS  /var/folders/dt/hjs72d_11kddbzhkd4h37c6c0000gn/T//ccz5ToXx.s 			page 20


 1084 03c8 F4EEED6A 		vcmpe.f32	s13, s27
 1085              	.LBE454:
 1086              	.LBE453:
 1087              	.LBE452:
 1088              	.LBE451:
 1089              	.LBE450:
 1090              	.LBE449:
 1091              	.LBB465:
 1092              	.LBB442:
 1093              		.loc 5 387 0
 1094 03cc A7EE867A 		vfma.f32	s14, s15, s12
 1095              	.LBE442:
 1096              	.LBE465:
 1097              	.LBB466:
 1098              	.LBB463:
 1099              	.LBB461:
 1100              	.LBB459:
 1101              	.LBB457:
 1102              	.LBB455:
 1103              		.loc 4 193 0
 1104 03d0 F1EE10FA 		vmrs	APSR_nzcv, FPSCR
 1105              	.LBE455:
 1106              	.LBE457:
 1107              	.LBE459:
 1108              	.LBE461:
 1109              	.LBE463:
 1110              	.LBE466:
 1111              	.LBB467:
 1112              	.LBB443:
 1113              		.loc 5 387 0
 1114 03d4 84ED227A 		vstr.32	s14, [r4, #136]
 1115              	.LVL98:
 1116              	.LBE443:
 1117              	.LBE467:
 1118              	.LBB468:
 1119              	.LBB464:
 1120              	.LBB462:
 1121              	.LBB460:
 1122              	.LBB458:
 1123              	.LBB456:
 1124              		.loc 4 193 0
 1125 03d8 0BDB     		blt	.L55
 1126              	.LVL99:
 1127 03da F4EECD6A 		vcmpe.f32	s13, s26
 1128 03de F1EE10FA 		vmrs	APSR_nzcv, FPSCR
 1129 03e2 B7EE007A 		vmov.f32	s14, #1.0e+0
 1130 03e6 B4BF     		ite	lt
 1131 03e8 F0EE667A 		vmovlt.f32	s15, s13
 1132 03ec F0EE477A 		vmovge.f32	s15, s14
 1133 03f0 01E0     		b	.L23
 1134              	.LVL100:
 1135              	.L55:
 1136 03f2 FFEE007A 		vmov.f32	s15, #-1.0e+0
 1137              	.LVL101:
 1138              	.L23:
 1139              	.LBE456:
 1140              	.LBE458:
ARM GAS  /var/folders/dt/hjs72d_11kddbzhkd4h37c6c0000gn/T//ccz5ToXx.s 			page 21


 1141              	.LBE460:
 1142              	.LBE462:
 1143              	.LBE464:
 1144              	.LBE468:
 1145              		.loc 3 121 0
 1146 03f6 27EEA77A 		vmul.f32	s14, s15, s15
 1147 03fa F4EE006A 		vmov.f32	s13, #1.25e-1
 1148 03fe 27EEC77A 		vnmul.f32	s14, s15, s14
 1149              		.loc 3 129 0
 1150 0402 3AEE2CAA 		vadd.f32	s20, s20, s25
 1151              	.LVL102:
 1152              		.loc 3 121 0
 1153 0406 E7EE267A 		vfma.f32	s15, s14, s13
 1154 040a FEEEE07A 		vcvt.s32.f32	s15, s15, #31
 1155 040e E5EC017A 		vstmia.32	r5!, {s15}	@ int
 1156              	.LVL103:
 1157              		.loc 3 123 0
 1158 0412 D4ED067A 		vldr.32	s15, [r4, #24]
 1159 0416 79EEA79A 		vadd.f32	s19, s19, s15
 1160              	.LVL104:
 1161              		.loc 3 124 0
 1162 041a FCEEE97A 		vcvt.u32.f32	s15, s19
 1163 041e F8EE677A 		vcvt.f32.u32	s15, s15
 1164 0422 79EEE79A 		vsub.f32	s19, s19, s15
 1165              	.LVL105:
 1166              		.loc 3 125 0
 1167 0426 D4ED077A 		vldr.32	s15, [r4, #28]
 1168 042a 39EE279A 		vadd.f32	s18, s18, s15
 1169              	.LVL106:
 1170              		.loc 3 126 0
 1171 042e FCEEC97A 		vcvt.u32.f32	s15, s18
 1172 0432 F8EE677A 		vcvt.f32.u32	s15, s15
 1173 0436 39EE679A 		vsub.f32	s18, s18, s15
 1174              	.LVL107:
 1175              		.loc 3 127 0
 1176 043a D4ED087A 		vldr.32	s15, [r4, #32]
 1177 043e 78EEA78A 		vadd.f32	s17, s17, s15
 1178              	.LVL108:
 1179              		.loc 3 128 0
 1180 0442 FCEEE87A 		vcvt.u32.f32	s15, s17
 1181 0446 F8EE677A 		vcvt.f32.u32	s15, s15
 1182 044a 78EEE78A 		vsub.f32	s17, s17, s15
 1183              	.LVL109:
 1184              	.LBE469:
 1185              		.loc 3 103 0
 1186 044e B2E6     		b	.L25
 1187              	.LVL110:
 1188              	.L18:
 1189              	.LBE470:
 1190              		.loc 3 132 0
 1191 0450 C4ED039A 		vstr.32	s19, [r4, #12]
 1192              		.loc 3 133 0
 1193 0454 84ED049A 		vstr.32	s18, [r4, #16]
 1194              		.loc 3 134 0
 1195 0458 C4ED058A 		vstr.32	s17, [r4, #20]
 1196              		.loc 3 135 0
 1197 045c 84ED0AAA 		vstr.32	s20, [r4, #40]
ARM GAS  /var/folders/dt/hjs72d_11kddbzhkd4h37c6c0000gn/T//ccz5ToXx.s 			page 22


 1198              		.loc 3 136 0
 1199 0460 BDEC0E8B 		vldm	sp!, {d8-d14}
 1200              		.cfi_restore 92
 1201              		.cfi_restore 93
 1202              		.cfi_restore 90
 1203              		.cfi_restore 91
 1204              		.cfi_restore 88
 1205              		.cfi_restore 89
 1206              		.cfi_restore 86
 1207              		.cfi_restore 87
 1208              		.cfi_restore 84
 1209              		.cfi_restore 85
 1210              		.cfi_restore 82
 1211              		.cfi_restore 83
 1212              		.cfi_restore 80
 1213              		.cfi_restore 81
 1214              		.cfi_def_cfa_offset 24
 1215              	.LVL111:
 1216 0464 F8BD     		pop	{r3, r4, r5, r6, r7, pc}
 1217              		.cfi_endproc
 1218              	.LFE295:
 1219              		.size	_hook_cycle, .-_hook_cycle
 1220              		.align	1
 1221              		.global	_hook_on
 1222              		.thumb
 1223              		.thumb_func
 1224              		.type	_hook_on, %function
 1225              	_hook_on:
 1226              	.LFB296:
 1227              		.loc 3 139 0
 1228              		.cfi_startproc
 1229              		@ args = 0, pretend = 0, frame = 0
 1230              		@ frame_needed = 0, uses_anonymous_args = 0
 1231              		@ link register save eliminated.
 1232              	.LVL112:
 1233              		.loc 3 140 0
 1234 0466 044A     		ldr	r2, .L60
 1235 0468 92F83C30 		ldrb	r3, [r2, #60]	@ zero_extendqisi2
 1236 046c 43F04003 		orr	r3, r3, #64
 1237 0470 82F83C30 		strb	r3, [r2, #60]
 1238 0474 7047     		bx	lr
 1239              	.L61:
 1240 0476 00BF     		.align	2
 1241              	.L60:
 1242 0478 00000000 		.word	.LANCHOR0
 1243              		.cfi_endproc
 1244              	.LFE296:
 1245              		.size	_hook_on, .-_hook_on
 1246              		.align	1
 1247              		.global	_hook_off
 1248              		.thumb
 1249              		.thumb_func
 1250              		.type	_hook_off, %function
 1251              	_hook_off:
 1252              	.LFB297:
 1253              		.loc 3 144 0
 1254              		.cfi_startproc
ARM GAS  /var/folders/dt/hjs72d_11kddbzhkd4h37c6c0000gn/T//ccz5ToXx.s 			page 23


 1255              		@ args = 0, pretend = 0, frame = 0
 1256              		@ frame_needed = 0, uses_anonymous_args = 0
 1257              		@ link register save eliminated.
 1258              	.LVL113:
 1259 047c 7047     		bx	lr
 1260              		.cfi_endproc
 1261              	.LFE297:
 1262              		.size	_hook_off, .-_hook_off
 1263              		.align	1
 1264              		.global	_hook_param
 1265              		.thumb
 1266              		.thumb_func
 1267              		.type	_hook_param, %function
 1268              	_hook_param:
 1269              	.LFB298:
 1270              		.loc 3 149 0
 1271              		.cfi_startproc
 1272              		@ args = 0, pretend = 0, frame = 0
 1273              		@ frame_needed = 0, uses_anonymous_args = 0
 1274              		@ link register save eliminated.
 1275              	.LVL114:
 1276              	.LBB471:
 1277              		.loc 3 153 0
 1278 047e 0728     		cmp	r0, #7
 1279 0480 00F2AE80 		bhi	.L63
 1280 0484 DFE800F0 		tbb	[pc, r0]
 1281              	.L66:
 1282 0488 04       		.byte	(.L65-.L66)/2
 1283 0489 13       		.byte	(.L67-.L66)/2
 1284 048a 22       		.byte	(.L68-.L66)/2
 1285 048b 2E       		.byte	(.L69-.L66)/2
 1286 048c 53       		.byte	(.L70-.L66)/2
 1287 048d 70       		.byte	(.L71-.L66)/2
 1288 048e 93       		.byte	(.L72-.L66)/2
 1289 048f 9F       		.byte	(.L73-.L66)/2
 1290              		.p2align 1
 1291              	.L65:
 1292              	.LBB472:
 1293              	.LBB473:
 1294              		.loc 3 159 0
 1295 0490 544B     		ldr	r3, .L92
 1296 0492 2E20     		movs	r0, #46
 1297              	.LVL115:
 1298 0494 B1FBF0F2 		udiv	r2, r1, r0
 1299 0498 00FB1211 		mls	r1, r0, r2, r1
 1300              	.LVL116:
 1301              		.loc 3 160 0
 1302 049c 93F83C20 		ldrb	r2, [r3, #60]	@ zero_extendqisi2
 1303              		.loc 3 159 0
 1304 04a0 83F85410 		strb	r1, [r3, #84]
 1305              		.loc 3 160 0
 1306 04a4 42F00202 		orr	r2, r2, #2
 1307 04a8 83F83C20 		strb	r2, [r3, #60]
 1308              	.LBE473:
 1309              		.loc 3 162 0
 1310 04ac 7047     		bx	lr
 1311              	.LVL117:
ARM GAS  /var/folders/dt/hjs72d_11kddbzhkd4h37c6c0000gn/T//ccz5ToXx.s 			page 24


 1312              	.L67:
 1313              	.LBB474:
 1314              		.loc 3 169 0
 1315 04ae 4D4B     		ldr	r3, .L92
 1316 04b0 2C20     		movs	r0, #44
 1317              	.LVL118:
 1318 04b2 B1FBF0F2 		udiv	r2, r1, r0
 1319 04b6 00FB1211 		mls	r1, r0, r2, r1
 1320              	.LVL119:
 1321              		.loc 3 170 0
 1322 04ba 93F83C20 		ldrb	r2, [r3, #60]	@ zero_extendqisi2
 1323              		.loc 3 169 0
 1324 04be 83F85510 		strb	r1, [r3, #85]
 1325              		.loc 3 170 0
 1326 04c2 42F00402 		orr	r2, r2, #4
 1327 04c6 83F83C20 		strb	r2, [r3, #60]
 1328              	.LBE474:
 1329              		.loc 3 172 0
 1330 04ca 7047     		bx	lr
 1331              	.LVL120:
 1332              	.L68:
 1333              		.loc 3 177 0
 1334 04cc 454B     		ldr	r3, .L92
 1335              		.loc 3 178 0
 1336 04ce 93F83C20 		ldrb	r2, [r3, #60]	@ zero_extendqisi2
 1337              		.loc 3 177 0
 1338 04d2 01F00F01 		and	r1, r1, #15
 1339              	.LVL121:
 1340              		.loc 3 178 0
 1341 04d6 42F00802 		orr	r2, r2, #8
 1342              		.loc 3 177 0
 1343 04da 83F85610 		strb	r1, [r3, #86]
 1344              		.loc 3 178 0
 1345 04de 83F83C20 		strb	r2, [r3, #60]
 1346              		.loc 3 179 0
 1347 04e2 7047     		bx	lr
 1348              	.LVL122:
 1349              	.L69:
 1350              		.loc 3 184 0
 1351 04e4 07EE901A 		vmov	s15, r1	@ int
 1352 04e8 9FED3F7A 		vldr.32	s14, .L92+4
 1353 04ec DFED3F6A 		vldr.32	s13, .L92+8
 1354 04f0 F8EEE77A 		vcvt.f32.s32	s15, s15
 1355 04f4 67EE877A 		vmul.f32	s15, s15, s14
 1356 04f8 9FED3D7A 		vldr.32	s14, .L92+12
 1357 04fc A7EEA67A 		vfma.f32	s14, s15, s13
 1358              	.LBB475:
 1359              	.LBB476:
 1360              	.LBB477:
 1361              	.LBB478:
 1362              		.loc 4 193 0
 1363 0500 B5EEC07A 		vcmpe.f32	s14, #0
 1364 0504 F1EE10FA 		vmrs	APSR_nzcv, FPSCR
 1365              	.LBE478:
 1366              	.LBE477:
 1367              	.LBE476:
 1368              	.LBE475:
ARM GAS  /var/folders/dt/hjs72d_11kddbzhkd4h37c6c0000gn/T//ccz5ToXx.s 			page 25


 1369              		.loc 3 184 0
 1370 0508 F0EE477A 		vmov.f32	s15, s14
 1371              	.LVL123:
 1372              	.LBB486:
 1373              	.LBB485:
 1374              	.LBB481:
 1375              	.LBB479:
 1376              		.loc 4 193 0
 1377 050c 09DB     		blt	.L89
 1378              	.LVL124:
 1379              	.LBE479:
 1380              	.LBE481:
 1381              	.LBB482:
 1382              	.LBB483:
 1383 050e B7EE007A 		vmov.f32	s14, #1.0e+0
 1384              	.LVL125:
 1385              	.LBE483:
 1386              	.LBE482:
 1387              	.LBB484:
 1388              	.LBB480:
 1389 0512 F4EEC77A 		vcmpe.f32	s15, s14
 1390 0516 F1EE10FA 		vmrs	APSR_nzcv, FPSCR
 1391 051a A8BF     		it	ge
 1392 051c F0EE477A 		vmovge.f32	s15, s14
 1393              	.LVL126:
 1394 0520 01E0     		b	.L74
 1395              	.LVL127:
 1396              	.L89:
 1397 0522 DFED347A 		vldr.32	s15, .L92+16
 1398              	.LVL128:
 1399              	.L74:
 1400              	.LBE480:
 1401              	.LBE484:
 1402              	.LBE485:
 1403              	.LBE486:
 1404              		.loc 3 184 0
 1405 0526 2F4B     		ldr	r3, .L92
 1406 0528 C3ED107A 		vstr.32	s15, [r3, #64]
 1407              		.loc 3 185 0
 1408 052c 7047     		bx	lr
 1409              	.L70:
 1410              		.loc 3 190 0
 1411 052e 07EE901A 		vmov	s15, r1	@ int
 1412 0532 9FED2D7A 		vldr.32	s14, .L92+4
 1413 0536 F8EEE77A 		vcvt.f32.s32	s15, s15
 1414 053a 67EE877A 		vmul.f32	s15, s15, s14
 1415              	.LVL129:
 1416              	.LBB487:
 1417              	.LBB488:
 1418              	.LBB489:
 1419              	.LBB490:
 1420              		.loc 4 193 0
 1421 053e F5EEC07A 		vcmpe.f32	s15, #0
 1422 0542 F1EE10FA 		vmrs	APSR_nzcv, FPSCR
 1423 0546 09DB     		blt	.L90
 1424              	.LVL130:
 1425              	.LBE490:
ARM GAS  /var/folders/dt/hjs72d_11kddbzhkd4h37c6c0000gn/T//ccz5ToXx.s 			page 26


 1426              	.LBE489:
 1427              	.LBB492:
 1428              	.LBB493:
 1429 0548 B7EE007A 		vmov.f32	s14, #1.0e+0
 1430              	.LBE493:
 1431              	.LBE492:
 1432              	.LBB494:
 1433              	.LBB491:
 1434 054c F4EEC77A 		vcmpe.f32	s15, s14
 1435 0550 F1EE10FA 		vmrs	APSR_nzcv, FPSCR
 1436 0554 A8BF     		it	ge
 1437 0556 F0EE477A 		vmovge.f32	s15, s14
 1438              	.LVL131:
 1439 055a 01E0     		b	.L76
 1440              	.LVL132:
 1441              	.L90:
 1442 055c DFED257A 		vldr.32	s15, .L92+16
 1443              	.LVL133:
 1444              	.L76:
 1445              	.LBE491:
 1446              	.LBE494:
 1447              	.LBE488:
 1448              	.LBE487:
 1449              		.loc 3 190 0
 1450 0560 204B     		ldr	r3, .L92
 1451 0562 C3ED117A 		vstr.32	s15, [r3, #68]
 1452              		.loc 3 191 0
 1453 0566 7047     		bx	lr
 1454              	.L71:
 1455              		.loc 3 196 0
 1456 0568 07EE901A 		vmov	s15, r1	@ int
 1457 056c 9FED1E7A 		vldr.32	s14, .L92+4
 1458 0570 F8EEE77A 		vcvt.f32.s32	s15, s15
 1459 0574 67EE877A 		vmul.f32	s15, s15, s14
 1460              	.LVL134:
 1461              	.LBB495:
 1462              	.LBB496:
 1463              	.LBB497:
 1464              	.LBB498:
 1465              		.loc 4 193 0
 1466 0578 F5EEC07A 		vcmpe.f32	s15, #0
 1467 057c F1EE10FA 		vmrs	APSR_nzcv, FPSCR
 1468 0580 09DB     		blt	.L91
 1469              	.LVL135:
 1470              	.LBE498:
 1471              	.LBE497:
 1472              	.LBB500:
 1473              	.LBB501:
 1474 0582 B7EE007A 		vmov.f32	s14, #1.0e+0
 1475              	.LBE501:
 1476              	.LBE500:
 1477              	.LBB502:
 1478              	.LBB499:
 1479 0586 F4EEC77A 		vcmpe.f32	s15, s14
 1480 058a F1EE10FA 		vmrs	APSR_nzcv, FPSCR
 1481 058e A8BF     		it	ge
 1482 0590 F0EE477A 		vmovge.f32	s15, s14
ARM GAS  /var/folders/dt/hjs72d_11kddbzhkd4h37c6c0000gn/T//ccz5ToXx.s 			page 27


 1483              	.LVL136:
 1484 0594 01E0     		b	.L78
 1485              	.LVL137:
 1486              	.L91:
 1487 0596 DFED177A 		vldr.32	s15, .L92+16
 1488              	.LVL138:
 1489              	.L78:
 1490              	.LBE499:
 1491              	.LBE502:
 1492              	.LBE496:
 1493              	.LBE495:
 1494              		.loc 3 196 0
 1495 059a 124B     		ldr	r3, .L92
 1496              		.loc 3 197 0
 1497 059c 93F83C20 		ldrb	r2, [r3, #60]	@ zero_extendqisi2
 1498              		.loc 3 196 0
 1499 05a0 C3ED127A 		vstr.32	s15, [r3, #72]
 1500              		.loc 3 197 0
 1501 05a4 42F02002 		orr	r2, r2, #32
 1502 05a8 83F83C20 		strb	r2, [r3, #60]
 1503              		.loc 3 198 0
 1504 05ac 7047     		bx	lr
 1505              	.L72:
 1506              		.loc 3 202 0
 1507 05ae 07EE901A 		vmov	s15, r1	@ int
 1508 05b2 9FED117A 		vldr.32	s14, .L92+20
 1509 05b6 0B4B     		ldr	r3, .L92
 1510 05b8 F8EEE77A 		vcvt.f32.s32	s15, s15
 1511 05bc 67EE877A 		vmul.f32	s15, s15, s14
 1512 05c0 C3ED137A 		vstr.32	s15, [r3, #76]
 1513              		.loc 3 203 0
 1514 05c4 7047     		bx	lr
 1515              	.L73:
 1516              		.loc 3 207 0
 1517 05c6 07EE901A 		vmov	s15, r1	@ int
 1518 05ca DFED0B6A 		vldr.32	s13, .L92+20
 1519 05ce 054B     		ldr	r3, .L92
 1520 05d0 F8EEE77A 		vcvt.f32.s32	s15, s15
 1521 05d4 B7EE007A 		vmov.f32	s14, #1.0e+0
 1522 05d8 A7EEA67A 		vfma.f32	s14, s15, s13
 1523 05dc 83ED147A 		vstr.32	s14, [r3, #80]
 1524              	.L63:
 1525 05e0 7047     		bx	lr
 1526              	.L93:
 1527 05e2 00BF     		.align	2
 1528              	.L92:
 1529 05e4 00000000 		.word	.LANCHOR0
 1530 05e8 0AD7233C 		.word	1008981770
 1531 05ec 6666663F 		.word	1063675494
 1532 05f0 CDCC4C3D 		.word	1028443341
 1533 05f4 00000000 		.word	0
 1534 05f8 0820803A 		.word	981475336
 1535              	.LBE472:
 1536              	.LBE471:
 1537              		.cfi_endproc
 1538              	.LFE298:
 1539              		.size	_hook_param, .-_hook_param
ARM GAS  /var/folders/dt/hjs72d_11kddbzhkd4h37c6c0000gn/T//ccz5ToXx.s 			page 28


 1540              		.section	.text.startup,"ax",%progbits
 1541              		.align	1
 1542              		.thumb
 1543              		.thumb_func
 1544              		.type	_GLOBAL__sub_I__hook_init, %function
 1545              	_GLOBAL__sub_I__hook_init:
 1546              	.LFB300:
 1547              		.loc 3 213 0
 1548              		.cfi_startproc
 1549              		@ args = 0, pretend = 0, frame = 64
 1550              		@ frame_needed = 0, uses_anonymous_args = 0
 1551              	.LVL139:
 1552 0000 2DE9F043 		push	{r4, r5, r6, r7, r8, r9, lr}
 1553              		.cfi_def_cfa_offset 28
 1554              		.cfi_offset 4, -28
 1555              		.cfi_offset 5, -24
 1556              		.cfi_offset 6, -20
 1557              		.cfi_offset 7, -16
 1558              		.cfi_offset 8, -12
 1559              		.cfi_offset 9, -8
 1560              		.cfi_offset 14, -4
 1561              	.LBB536:
 1562              	.LBB537:
 1563              	.LBB538:
 1564              	.LBB539:
 1565              		.loc 1 125 0
 1566 0004 354C     		ldr	r4, .L95
 1567              	.LBB540:
 1568              	.LBB541:
 1569              		.loc 1 76 0
 1570 0006 DFF8E890 		ldr	r9, .L95+20
 1571              	.LBE541:
 1572              	.LBE540:
 1573              	.LBE539:
 1574              	.LBE538:
 1575              	.LBE537:
 1576              	.LBE536:
 1577              		.loc 3 213 0
 1578 000a 91B0     		sub	sp, sp, #68
 1579              		.cfi_def_cfa_offset 96
 1580              	.LBB587:
 1581              	.LBB586:
 1582              	.LBB585:
 1583              	.LBB584:
 1584              		.loc 1 125 0
 1585 000c 2046     		mov	r0, r4
 1586 000e FFF7FEFF 		bl	_ZN5Waves5StateC1Ev
 1587              	.LVL140:
 1588              	.LBB544:
 1589              	.LBB542:
 1590              		.loc 1 76 0
 1591 0012 0025     		movs	r5, #0
 1592 0014 4FF00008 		mov	r8, #0
 1593              	.LBE542:
 1594              	.LBE544:
 1595              	.LBB545:
 1596              	.LBB546:
ARM GAS  /var/folders/dt/hjs72d_11kddbzhkd4h37c6c0000gn/T//ccz5ToXx.s 			page 29


 1597              		.loc 1 130 0
 1598 0018 6846     		mov	r0, sp
 1599 001a 6E46     		mov	r6, sp
 1600              	.LBE546:
 1601              	.LBE545:
 1602              	.LBB574:
 1603              	.LBB543:
 1604              		.loc 1 76 0
 1605 001c C4F84090 		str	r9, [r4, #64]	@ float
 1606 0020 6564     		str	r5, [r4, #68]	@ float
 1607 0022 A564     		str	r5, [r4, #72]	@ float
 1608 0024 E564     		str	r5, [r4, #76]	@ float
 1609 0026 2565     		str	r5, [r4, #80]	@ float
 1610 0028 84F85480 		strb	r8, [r4, #84]
 1611 002c 84F85580 		strb	r8, [r4, #85]
 1612 0030 84F85680 		strb	r8, [r4, #86]
 1613              	.LVL141:
 1614              	.LBE543:
 1615              	.LBE574:
 1616              	.LBB575:
 1617              	.LBB576:
 1618              	.LBB577:
 1619              	.LBB578:
 1620              		.loc 5 77 0
 1621 0034 A565     		str	r5, [r4, #88]	@ float
 1622 0036 E565     		str	r5, [r4, #92]	@ float
 1623 0038 2566     		str	r5, [r4, #96]	@ float
 1624 003a 6566     		str	r5, [r4, #100]	@ float
 1625 003c A566     		str	r5, [r4, #104]	@ float
 1626              	.LVL142:
 1627              	.LBE578:
 1628              	.LBE577:
 1629              		.loc 5 344 0
 1630 003e E566     		str	r5, [r4, #108]	@ float
 1631 0040 2567     		str	r5, [r4, #112]	@ float
 1632              	.LVL143:
 1633              	.LBE576:
 1634              	.LBE575:
 1635              	.LBB579:
 1636              	.LBB580:
 1637              	.LBB581:
 1638              	.LBB582:
 1639              		.loc 5 77 0
 1640 0042 6567     		str	r5, [r4, #116]	@ float
 1641 0044 A567     		str	r5, [r4, #120]	@ float
 1642 0046 E567     		str	r5, [r4, #124]	@ float
 1643 0048 C4F88050 		str	r5, [r4, #128]	@ float
 1644 004c C4F88450 		str	r5, [r4, #132]	@ float
 1645              	.LVL144:
 1646              	.LBE582:
 1647              	.LBE581:
 1648              		.loc 5 344 0
 1649 0050 C4F88850 		str	r5, [r4, #136]	@ float
 1650 0054 C4F88C50 		str	r5, [r4, #140]	@ float
 1651              	.LVL145:
 1652              	.LBE580:
 1653              	.LBE579:
ARM GAS  /var/folders/dt/hjs72d_11kddbzhkd4h37c6c0000gn/T//ccz5ToXx.s 			page 30


 1654              	.LBB583:
 1655              	.LBB573:
 1656              		.loc 1 130 0
 1657 0058 FFF7FEFF 		bl	_ZN5Waves5StateC1Ev
 1658              	.LVL146:
 1659 005c 0FCE     		ldmia	r6!, {r0, r1, r2, r3}
 1660 005e 2746     		mov	r7, r4
 1661 0060 0FC7     		stmia	r7!, {r0, r1, r2, r3}
 1662 0062 0FCE     		ldmia	r6!, {r0, r1, r2, r3}
 1663 0064 0FC7     		stmia	r7!, {r0, r1, r2, r3}
 1664 0066 0FCE     		ldmia	r6!, {r0, r1, r2, r3}
 1665 0068 0FC7     		stmia	r7!, {r0, r1, r2, r3}
 1666 006a 96E80F00 		ldmia	r6, {r0, r1, r2, r3}
 1667 006e 07C7     		stmia	r7!, {r0, r1, r2}
 1668 0070 3B70     		strb	r3, [r7]
 1669              	.LBB547:
 1670              	.LBB548:
 1671              		.loc 5 102 0
 1672 0072 1B4B     		ldr	r3, .L95+4
 1673              	.LBE548:
 1674              	.LBE547:
 1675              		.loc 1 131 0
 1676 0074 C4F84090 		str	r9, [r4, #64]	@ float
 1677              	.LBB551:
 1678              	.LBB549:
 1679              		.loc 5 102 0
 1680 0078 A365     		str	r3, [r4, #88]	@ float
 1681              		.loc 5 103 0
 1682 007a 1A4B     		ldr	r3, .L95+8
 1683 007c 6366     		str	r3, [r4, #100]	@ float
 1684              	.LBE549:
 1685              	.LBE551:
 1686              	.LBB552:
 1687              	.LBB553:
 1688              		.loc 2 624 0
 1689 007e 1A4B     		ldr	r3, .L95+12
 1690              	.LBB554:
 1691              	.LBB555:
 1692              		.loc 4 826 0
 1693 0080 DFED1A6A 		vldr.32	s13, .L95+16
 1694              	.LBE555:
 1695              	.LBE554:
 1696              		.loc 2 624 0
 1697 0084 D3EDEB7A 		vldr.32	s15, [r3, #940]
 1698              	.LBB559:
 1699              	.LBB556:
 1700              		.loc 4 826 0
 1701 0088 93EDEC7A 		vldr.32	s14, [r3, #944]
 1702              	.LBE556:
 1703              	.LBE559:
 1704              	.LBE553:
 1705              	.LBE552:
 1706              		.loc 1 131 0
 1707 008c 6564     		str	r5, [r4, #68]	@ float
 1708              	.LBB564:
 1709              	.LBB562:
 1710              	.LBB560:
ARM GAS  /var/folders/dt/hjs72d_11kddbzhkd4h37c6c0000gn/T//ccz5ToXx.s 			page 31


 1711              	.LBB557:
 1712              		.loc 4 826 0
 1713 008e 37EE677A 		vsub.f32	s14, s14, s15
 1714              	.LBE557:
 1715              	.LBE560:
 1716              	.LBE562:
 1717              	.LBE564:
 1718              		.loc 1 131 0
 1719 0092 A564     		str	r5, [r4, #72]	@ float
 1720              	.LBB565:
 1721              	.LBB563:
 1722              	.LBB561:
 1723              	.LBB558:
 1724              		.loc 4 826 0
 1725 0094 E7EE267A 		vfma.f32	s15, s14, s13
 1726              	.LBE558:
 1727              	.LBE561:
 1728              	.LBE563:
 1729              	.LBE565:
 1730              		.loc 1 131 0
 1731 0098 E564     		str	r5, [r4, #76]	@ float
 1732 009a 2565     		str	r5, [r4, #80]	@ float
 1733              	.LBB566:
 1734              	.LBB567:
 1735              		.loc 5 139 0
 1736 009c F7EE006A 		vmov.f32	s13, #1.0e+0
 1737 00a0 37EEA67A 		vadd.f32	s14, s15, s13
 1738              	.LBE567:
 1739              	.LBE566:
 1740              		.loc 1 131 0
 1741 00a4 84F85480 		strb	r8, [r4, #84]
 1742              	.LBB570:
 1743              	.LBB568:
 1744              		.loc 5 141 0
 1745 00a8 87EE876A 		vdiv.f32	s12, s15, s14
 1746              	.LBE568:
 1747              	.LBE570:
 1748              		.loc 1 131 0
 1749 00ac 84F85580 		strb	r8, [r4, #85]
 1750 00b0 84F85680 		strb	r8, [r4, #86]
 1751              	.LVL147:
 1752              	.LBB571:
 1753              	.LBB550:
 1754              		.loc 5 104 0
 1755 00b4 E565     		str	r5, [r4, #92]	@ float
 1756 00b6 2566     		str	r5, [r4, #96]	@ float
 1757 00b8 A566     		str	r5, [r4, #104]	@ float
 1758              	.LVL148:
 1759              	.LBE550:
 1760              	.LBE571:
 1761              	.LBB572:
 1762              	.LBB569:
 1763              		.loc 5 143 0
 1764 00ba E567     		str	r5, [r4, #124]	@ float
 1765 00bc C4F88450 		str	r5, [r4, #132]	@ float
 1766              	.LVL149:
 1767              		.loc 5 142 0
ARM GAS  /var/folders/dt/hjs72d_11kddbzhkd4h37c6c0000gn/T//ccz5ToXx.s 			page 32


 1768 00c0 77EEE67A 		vsub.f32	s15, s15, s13
 1769              		.loc 5 141 0
 1770 00c4 84ED1E6A 		vstr.32	s12, [r4, #120]
 1771              		.loc 5 142 0
 1772 00c8 C7EE876A 		vdiv.f32	s13, s15, s14
 1773              		.loc 5 141 0
 1774 00cc 84ED1D6A 		vstr.32	s12, [r4, #116]
 1775              		.loc 5 142 0
 1776 00d0 C4ED206A 		vstr.32	s13, [r4, #128]
 1777              	.LBE569:
 1778              	.LBE572:
 1779              	.LBE573:
 1780              	.LBE583:
 1781              	.LBE584:
 1782              	.LBE585:
 1783              	.LBE586:
 1784              	.LBE587:
 1785              		.loc 3 213 0
 1786 00d4 11B0     		add	sp, sp, #68
 1787              		.cfi_def_cfa_offset 28
 1788              		@ sp needed
 1789 00d6 BDE8F083 		pop	{r4, r5, r6, r7, r8, r9, pc}
 1790              	.L96:
 1791 00da 00BF     		.align	2
 1792              	.L95:
 1793 00dc 00000000 		.word	.LANCHOR0
 1794 00e0 CCCC4C3E 		.word	1045220556
 1795 00e4 CDCC4CBF 		.word	-1085485875
 1796 00e8 00000000 		.word	tanpi_lut_f
 1797 00ec 00F8D03D 		.word	1037105152
 1798 00f0 CDCC4C3D 		.word	1028443341
 1799              		.cfi_endproc
 1800              	.LFE300:
 1801              		.size	_GLOBAL__sub_I__hook_init, .-_GLOBAL__sub_I__hook_init
 1802              		.section	.init_array,"aw",%init_array
 1803              		.align	2
 1804 0000 00000000 		.word	_GLOBAL__sub_I__hook_init(target1)
 1805              		.bss
 1806              		.align	2
 1807              		.set	.LANCHOR0,. + 0
 1808              		.type	_ZL7s_waves, %object
 1809              		.size	_ZL7s_waves, 144
 1810              	_ZL7s_waves:
 1811 0000 00000000 		.space	144
 1811      00000000 
 1811      00000000 
 1811      00000000 
 1811      00000000 
 1812              		.text
 1813              	.Letext0:
 1814              		.file 6 "/Users/markweiss/Documents/projects/logue-sdk/tools/gcc/gcc-arm-none-eabi-5_4-2016q3/arm-
 1815              		.file 7 "/Users/markweiss/Documents/projects/logue-sdk/tools/gcc/gcc-arm-none-eabi-5_4-2016q3/arm-
 1816              		.file 8 "../../../ext/CMSIS/CMSIS/Include/arm_math.h"
 1817              		.file 9 "../../inc/userosc.h"
 1818              		.file 10 "../../inc/userprg.h"
 1819              		.file 11 "../../inc/utils/int_math.h"